(lp0
(lp1
I180
aI180
aI180
aI180
aI180
aI180
aI180
aI180
aI180
aI180
aI180
aI180
aI180
aI180
aI180
aI180
aI180
aI180
aI180
aI180
aI180
aI180
aI180
aI180
aI180
aI180
aI180
aI180
aI180
aI180
aI180
aI180
aI180
aI180
aI180
aI180
aI180
aI180
aI180
aI180
aI180
aI180
aI180
aI180
aI180
aI180
aI180
aI180
aI180
aI180
aI180
aI180
aI180
aI180
aI180
aI180
aI180
aI180
aI180
aI180
aI180
aI180
aI180
aI180
aI180
aI180
aI180
aI180
aI180
aI179
aI178
aI177
aI176
aI175
aI174
aI173
aI172
aI171
aI170
aI169
aI168
aI167
aI166
aI165
aI164
aI163
aI162
aI161
aI160
aI159
aI158
aI157
aI156
aI155
aI154
aI153
aI152
aI151
aI150
aI149
aI148
aI147
aI146
aI145
aI144
aI144
aI144
aI144
aI144
aI144
aI144
aI144
aI144
aI144
aI144
aI144
aI144
aI144
aI144
aI144
aI144
aI144
aI144
aI144
aI144
aI144
aI144
aI144
aI143
aI142
aI141
aI140
aI139
aI138
aI137
aI136
aI135
aI134
aI134
aI134
aI134
aI134
aI134
aI134
aI134
aI134
aI134
aI134
aI134
aI134
aI134
aI134
aI134
aI135
aI136
aI137
aI138
aI139
aI140
aI141
aI142
aI143
aI143
aI143
aI143
aI143
aI143
aI143
aI143
aI143
aI143
aI143
aI143
aI143
aI143
aI143
aI143
aI143
aI143
aI143
aI143
aI143
aI143
aI143
aI143
aI143
aI143
aI143
aI143
aI143
aI143
aI143
aI143
aI143
aI143
aI143
aI143
aI143
aI143
aI143
aI143
aI143
aI143
aI143
aI143
aI143
aI143
aI143
aI143
aI143
aI143
aI143
aI143
aI143
aI143
aI143
aI143
aI143
aI143
aI143
aI143
aI143
aI143
aI143
aI143
aI143
aI143
aI143
aI143
aI143
aI143
aI143
aI143
aI143
aI143
aI143
aI143
aI143
aI143
aI143
aI143
aI143
aI143
aI143
aI143
aI143
aI143
aI143
aI143
aI143
aI143
aI143
aI143
aI143
aI143
aI143
aI143
aI143
aI143
aI143
aI143
aI143
aI143
aI143
aI143
aI143
aI143
aI143
aI143
aI143
aI143
aI143
aI143
aI143
aI143
aI143
aI143
aI143
aI143
aI143
aI143
aI143
aI143
aI143
aI143
aI143
aI143
aI143
aI143
aI143
aI143
aI143
aI143
aI143
aI143
aI143
aI143
aI143
aI143
aI143
aI143
aI143
aI143
aa(lp2
I90
aI90
aI90
aI90
aI90
aI90
aI90
aI90
aI90
aI90
aI90
aI90
aI90
aI90
aI90
aI90
aI90
aI90
aI90
aI90
aI90
aI90
aI90
aI90
aI90
aI90
aI90
aI90
aI90
aI90
aI90
aI90
aI90
aI90
aI90
aI90
aI90
aI90
aI90
aI90
aI90
aI90
aI90
aI90
aI91
aI92
aI93
aI94
aI95
aI96
aI97
aI98
aI99
aI100
aI101
aI102
aI103
aI104
aI105
aI106
aI107
aI108
aI109
aI110
aI111
aI112
aI113
aI114
aI115
aI116
aI117
aI118
aI119
aI120
aI121
aI122
aI123
aI124
aI125
aI125
aI125
aI125
aI125
aI125
aI125
aI125
aI125
aI125
aI125
aI125
aI125
aI125
aI125
aI126
aI127
aI128
aI129
aI130
aI131
aI132
aI133
aI133
aI133
aI133
aI133
aI133
aI133
aI133
aI133
aI133
aI133
aI133
aI133
aI133
aI133
aI133
aI134
aI135
aI136
aI137
aI138
aI139
aI140
aI141
aI141
aI141
aI141
aI141
aI141
aI141
aI141
aI141
aI141
aI141
aI141
aI141
aI141
aI142
aI143
aI144
aI145
aI146
aI147
aI148
aI149
aI150
aI150
aI150
aI150
aI150
aI150
aI150
aI150
aI150
aI150
aI150
aI150
aI150
aI150
aI150
aI150
aI150
aI150
aI150
aI150
aI150
aI150
aI150
aI150
aI150
aI150
aI150
aI150
aI150
aI150
aI150
aI150
aI150
aI150
aI150
aI150
aI150
aI150
aI150
aI150
aI150
aI150
aI150
aI150
aI150
aI150
aI150
aI150
aI150
aI150
aI150
aI150
aI150
aI150
aI150
aI150
aI150
aI150
aI150
aI150
aI150
aI150
aI150
aI150
aI150
aI150
aI150
aI150
aI150
aI150
aI150
aI150
aI150
aI150
aI150
aI150
aI150
aI150
aI150
aI150
aI150
aI150
aI150
aI150
aI150
aI150
aI150
aI150
aI150
aI150
aI150
aI150
aI150
aI150
aI150
aI150
aI150
aI150
aI150
aI150
aI150
aI150
aI150
aI150
aI150
aI150
aI150
aI150
aI150
aI150
aI150
aI150
aI150
aI150
aI150
aI150
aI150
aI150
aI150
aI150
aI150
aI150
aI150
aI150
aI150
aI150
aI150
aI150
aI150
aI150
aI150
aI150
aI150
aI150
aI150
aI150
aI150
aI150
aI150
aI150
aI150
aI150
aI150
aI150
aI150
aI150
aI150
aI150
aI150
aI150
aI150
aI150
aI150
aI150
aI150
aI150
aI150
aa(lp3
I270
aI270
aI270
aI270
aI270
aI270
aI270
aI270
aI270
aI270
aI270
aI270
aI270
aI270
aI270
aI270
aI270
aI270
aI270
aI270
aI270
aI270
aI270
aI270
aI270
aI270
aI270
aI270
aI270
aI270
aI270
aI270
aI270
aI270
aI270
aI270
aI270
aI270
aI270
aI270
aI270
aI270
aI270
aI270
aI270
aI270
aI270
aI270
aI270
aI270
aI270
aI270
aI270
aI270
aI270
aI270
aI270
aI270
aI270
aI269
aI268
aI267
aI266
aI265
aI264
aI263
aI262
aI261
aI260
aI259
aI258
aI257
aI256
aI255
aI254
aI253
aI252
aI251
aI250
aI249
aI248
aI247
aI246
aI245
aI244
aI243
aI242
aI241
aI241
aI241
aI241
aI241
aI241
aI241
aI241
aI241
aI241
aI241
aI241
aI241
aI241
aI241
aI240
aI239
aI238
aI237
aI236
aI235
aI234
aI233
aI232
aI232
aI232
aI232
aI232
aI232
aI232
aI232
aI232
aI232
aI232
aI232
aI232
aI232
aI232
aI232
aI232
aI232
aI232
aI232
aI232
aI232
aI232
aI232
aI232
aI232
aI232
aI232
aI232
aI232
aI232
aI232
aI232
aI232
aI232
aI232
aI232
aI232
aI232
aI232
aI232
aI232
aI232
aI232
aI232
aI232
aI232
aI232
aI232
aI232
aI232
aI232
aI232
aI232
aI232
aI232
aI232
aI232
aI232
aI232
aI232
aI232
aI232
aI232
aI232
aI232
aI232
aI232
aI233
aI234
aI235
aI236
aI237
aI238
aI238
aI238
aI238
aI238
aI238
aI238
aI238
aI238
aI238
aI238
aI238
aI238
aI238
aI238
aI238
aI238
aI238
aI238
aI238
aI238
aI238
aI238
aI238
aI238
aI237
aI236
aI235
aI234
aI233
aI232
aI231
aI230
aI229
aI228
aI228
aI228
aI228
aI228
aI228
aI228
aI228
aI228
aI228
aI228
aI228
aI228
aI228
aI228
aI228
aI228
aI228
aI228
aI228
aI228
aI228
aI228
aI228
aI228
aI228
aI228
aI228
aI228
aI228
aI228
aI228
aI228
aI228
aI228
aI228
aI228
aI228
aI228
aI228
aI228
aI228
aI228
aI228
aI228
aI228
aI228
aI228
aI228
aI228
aI228
aI228
aI228
aI228
aI228
aI228
aI228
aI228
aI228
aI228
aI228
aI228
aI228
aI228
aI228
aI228
aI228
aI228
aI228
aI228
aI228
aI228
aI228
aI228
aI228
aI228
aI228
aI228
aI228
aI228
aI228
aI228
aI228
aI228
aI228
aI228
aa(lp4
I270
aI270
aI270
aI270
aI270
aI270
aI270
aI270
aI270
aI270
aI270
aI270
aI270
aI270
aI270
aI270
aI270
aI270
aI270
aI270
aI270
aI270
aI270
aI270
aI270
aI270
aI270
aI270
aI270
aI270
aI270
aI270
aI270
aI270
aI270
aI270
aI270
aI270
aI270
aI271
aI272
aI273
aI274
aI275
aI276
aI277
aI277
aI277
aI277
aI277
aI277
aI277
aI278
aI279
aI280
aI281
aI282
aI283
aI284
aI285
aI286
aI286
aI286
aI287
aI288
aI289
aI290
aI291
aI292
aI293
aI294
aI295
aI295
aI295
aI295
aI295
aI295
aI295
aI295
aI295
aI295
aI295
aI295
aI295
aI295
aI295
aI295
aI295
aI295
aI295
aI295
aI295
aI295
aI295
aI295
aI295
aI295
aI295
aI295
aI295
aI295
aI295
aI295
aI295
aI295
aI295
aI295
aI295
aI295
aI295
aI295
aI295
aI295
aI295
aI295
aI295
aI295
aI295
aI295
aI295
aI295
aI295
aI295
aI295
aI295
aI295
aI295
aI295
aI295
aI295
aI295
aI295
aI295
aI295
aI295
aI295
aI295
aI295
aI295
aI295
aI295
aI295
aI295
aI295
aI295
aI295
aI295
aI295
aI295
aI295
aI295
aI295
aI295
aI295
aI295
aI295
aI295
aI295
aI295
aI295
aI295
aI295
aI295
aI295
aI295
aI295
aI295
aI295
aI295
aI295
aI295
aI295
aI295
aI295
aI295
aI295
aI295
aI295
aI295
aI295
aI295
aI295
aI295
aI295
aI295
aI295
aI295
aI295
aI295
aI295
aI295
aI295
aI295
aI295
aI295
aI295
aI295
aI295
aI295
aI295
aI295
aI295
aI295
aI295
aI295
aI295
aI295
aI295
aI295
aI295
aI295
aI295
aI295
aI295
aI295
aI295
aI295
aI295
aI295
aI295
aI295
aI295
aI295
aI295
aI295
aI295
aI295
aI295
aI295
aI295
aI295
aI295
aI295
aI295
aI295
aI295
aI295
aI295
aI295
aI295
aI295
aI295
aI295
aI295
aI295
aI295
aI295
aI295
aI295
aI295
aI295
aI295
aI295
aI295
aI295
aI295
aI295
aI295
aI295
aI295
aI295
aI295
aI295
aI295
aI295
aI295
aI295
aI295
aI295
aI295
aI295
aI295
aI295
aI295
aI295
aI295
aI295
aI295
aI295
aI295
aI295
aI295
aI295
aI295
aI295
aI295
aI295
aI295
aI295
aI295
aI295
aI295
aI295
aI295
aI295
aI295
aI295
aI295
aI295
aI295
aI295
aI295
aI295
aa(lp5
I0
aI0
aI0
aI0
aI0
aI0
aI0
aI0
aI0
aI0
aI0
aI0
aI0
aI0
aI0
aI0
aI0
aI0
aI0
aI0
aI0
aI0
aI0
aI0
aI0
aI0
aI0
aI0
aI0
aI0
aI0
aI0
aI0
aI0
aI0
aI0
aI0
aI0
aI0
aI0
aI0
aI0
aI0
aI0
aI0
aI0
aI0
aI0
aI0
aI0
aI0
aI0
aI0
aI0
aI359
aI358
aI357
aI356
aI355
aI354
aI353
aI352
aI351
aI350
aI349
aI348
aI347
aI346
aI345
aI344
aI343
aI342
aI341
aI340
aI339
aI338
aI337
aI336
aI335
aI334
aI333
aI332
aI331
aI330
aI329
aI328
aI327
aI326
aI325
aI325
aI325
aI325
aI325
aI325
aI325
aI325
aI325
aI325
aI325
aI325
aI325
aI325
aI325
aI324
aI323
aI322
aI321
aI320
aI319
aI318
aI317
aI317
aI317
aI317
aI317
aI317
aI317
aI317
aI317
aI317
aI317
aI316
aI315
aI314
aI313
aI312
aI311
aI311
aI311
aI311
aI311
aI311
aI311
aI311
aI311
aI311
aI311
aI311
aI311
aI311
aI311
aI311
aI311
aI311
aI311
aI311
aI311
aI311
aI311
aI310
aI309
aI308
aI307
aI306
aI305
aI304
aI304
aI304
aI304
aI304
aI304
aI304
aI304
aI304
aI304
aI304
aI304
aI304
aI304
aI304
aI304
aI304
aI304
aI304
aI304
aI304
aI304
aI304
aI304
aI304
aI304
aI304
aI304
aI304
aI304
aI304
aI304
aI304
aI304
aI304
aI304
aI304
aI304
aI304
aI304
aI304
aI304
aI304
aI304
aI304
aI304
aI304
aI304
aI304
aI304
aI304
aI304
aI304
aI304
aI304
aI304
aI304
aI304
aI304
aI304
aI304
aI304
aI304
aI304
aI304
aI304
aI304
aI304
aI304
aI304
aI304
aI304
aI304
aI304
aI304
aI304
aI304
aI304
aI304
aI304
aI304
aI304
aI304
aI304
aI304
aI304
aI304
aI304
aI304
aI304
aI304
aI304
aI304
aI304
aI304
aI304
aI304
aI304
aI304
aI304
aI304
aI304
aI304
aI304
aI304
aI304
aI304
aI304
aI304
aI304
aI304
aI304
aI304
aI304
aI304
aI304
aI304
aI304
aI304
aI304
aI304
aI304
aI304
aI304
aI304
aI304
aI304
aI304
aI304
aI304
aI304
aI304
aI304
aI304
aI304
aI304
aI304
aI304
aI304
aI304
aI304
aI304
aI304
aI304
aI304
aI304
aI304
aI304
aa(lp6
I180
aI180
aI180
aI180
aI180
aI180
aI180
aI180
aI180
aI180
aI180
aI180
aI180
aI180
aI180
aI180
aI180
aI180
aI180
aI180
aI180
aI180
aI180
aI180
aI180
aI180
aI180
aI180
aI180
aI180
aI180
aI180
aI180
aI180
aI180
aI180
aI180
aI180
aI180
aI180
aI180
aI180
aI180
aI180
aI180
aI180
aI180
aI180
aI180
aI180
aI180
aI180
aI180
aI180
aI180
aI180
aI180
aI180
aI180
aI180
aI180
aI180
aI180
aI180
aI180
aI180
aI180
aI180
aI180
aI180
aI181
aI182
aI183
aI184
aI185
aI186
aI187
aI188
aI189
aI190
aI191
aI192
aI192
aI192
aI192
aI192
aI192
aI192
aI192
aI192
aI192
aI192
aI192
aI192
aI192
aI192
aI191
aI190
aI189
aI188
aI187
aI186
aI185
aI184
aI183
aI182
aI181
aI180
aI179
aI178
aI177
aI176
aI175
aI174
aI173
aI172
aI171
aI170
aI169
aI168
aI167
aI166
aI165
aI164
aI163
aI162
aI161
aI160
aI159
aI159
aI159
aI159
aI159
aI159
aI159
aI159
aI159
aI159
aI159
aI159
aI159
aI159
aI159
aI159
aI159
aI158
aI157
aI156
aI155
aI154
aI153
aI152
aI151
aI150
aI149
aI148
aI147
aI146
aI145
aI144
aI143
aI142
aI141
aI141
aI141
aI141
aI141
aI141
aI141
aI141
aI141
aI141
aI141
aI141
aI141
aI141
aI141
aI140
aI139
aI138
aI137
aI136
aI135
aI134
aI133
aI133
aI133
aI133
aI133
aI133
aI133
aI133
aI133
aI133
aI132
aI131
aI130
aI129
aI128
aI127
aI126
aI125
aI124
aI124
aI124
aI124
aI124
aI124
aI124
aI123
aI122
aI121
aI120
aI119
aI118
aI117
aI116
aI116
aI116
aI116
aI116
aI116
aI116
aI116
aI116
aI116
aI116
aI116
aI116
aI116
aI116
aI116
aI116
aI116
aI116
aI116
aI116
aI116
aI116
aI116
aI116
aI116
aI116
aI116
aI116
aI116
aI116
aI116
aI116
aI116
aI116
aI116
aI116
aI116
aI116
aI116
aI116
aI116
aI116
aI116
aI116
aI116
aI116
aI116
aI116
aI116
aI116
aI116
aI116
aI116
aI116
aI116
aI116
aI116
aI116
aI116
aI116
aI116
aI116
aI116
aI116
aI116
aI116
aI116
aI116
aI116
aI116
aI116
aI116
aI116
aI116
aI116
aI116
aI116
aI116
aI116
aI116
aI116
aI116
aI116
aI116
aI116
aI116
aa(lp7
I0
aI0
aI0
aI0
aI0
aI0
aI0
aI0
aI0
aI0
aI0
aI0
aI0
aI0
aI0
aI0
aI0
aI0
aI0
aI0
aI0
aI0
aI0
aI0
aI0
aI0
aI0
aI0
aI0
aI0
aI0
aI0
aI0
aI0
aI0
aI0
aI0
aI0
aI0
aI0
aI0
aI0
aI0
aI0
aI0
aI0
aI0
aI0
aI0
aI0
aI0
aI0
aI0
aI359
aI358
aI357
aI356
aI355
aI354
aI353
aI352
aI351
aI350
aI349
aI348
aI347
aI346
aI345
aI344
aI343
aI342
aI341
aI340
aI339
aI338
aI337
aI336
aI335
aI334
aI333
aI332
aI331
aI330
aI329
aI328
aI327
aI326
aI325
aI324
aI323
aI322
aI321
aI320
aI319
aI318
aI317
aI316
aI315
aI314
aI313
aI312
aI311
aI310
aI309
aI308
aI308
aI308
aI308
aI308
aI308
aI308
aI308
aI308
aI308
aI308
aI308
aI308
aI308
aI308
aI308
aI307
aI306
aI305
aI304
aI303
aI302
aI301
aI300
aI299
aI298
aI298
aI298
aI298
aI298
aI298
aI298
aI298
aI298
aI298
aI297
aI296
aI295
aI294
aI293
aI292
aI291
aI291
aI291
aI291
aI291
aI291
aI291
aI291
aI291
aI291
aI291
aI291
aI291
aI291
aI291
aI291
aI291
aI291
aI291
aI291
aI291
aI291
aI291
aI291
aI291
aI291
aI291
aI291
aI291
aI291
aI291
aI291
aI291
aI291
aI291
aI291
aI291
aI291
aI291
aI291
aI291
aI291
aI291
aI291
aI291
aI291
aI291
aI291
aI291
aI291
aI291
aI291
aI291
aI291
aI291
aI291
aI291
aI291
aI291
aI291
aI291
aI291
aI291
aI291
aI291
aI291
aI291
aI291
aI291
aI291
aI291
aI291
aI291
aI291
aI291
aI291
aI291
aI291
aI291
aI291
aI291
aI291
aI291
aI291
aI291
aI291
aI291
aI291
aI291
aI291
aI291
aI291
aI291
aI291
aI291
aI291
aI291
aI291
aI291
aI291
aI291
aI291
aI291
aI291
aI291
aI291
aI291
aI291
aI291
aI291
aI291
aI291
aI291
aI291
aI291
aI291
aI291
aI291
aI291
aI291
aI291
aI291
aI291
aI291
aI291
aI291
aI291
aI291
aI291
aI291
aI291
aI291
aI291
aI291
aI291
aI291
aI291
aI291
aI291
aI291
aI291
aI291
aI291
aI291
aI291
aI291
aI291
aI291
aI291
aI291
aI291
aI291
aI291
aI291
aI291
aI291
aI291
aI291
aa(lp8
I90
aI90
aI90
aI90
aI90
aI90
aI90
aI90
aI90
aI90
aI90
aI90
aI90
aI90
aI90
aI90
aI90
aI90
aI90
aI90
aI90
aI90
aI90
aI90
aI90
aI90
aI90
aI90
aI90
aI90
aI90
aI90
aI90
aI90
aI90
aI90
aI90
aI90
aI90
aI90
aI90
aI90
aI90
aI90
aI90
aI90
aI90
aI90
aI90
aI91
aI92
aI93
aI94
aI95
aI96
aI97
aI98
aI99
aI100
aI101
aI102
aI103
aI104
aI105
aI106
aI107
aI108
aI109
aI110
aI111
aI111
aI111
aI111
aI111
aI112
aI113
aI114
aI115
aI116
aI117
aI118
aI118
aI118
aI118
aI118
aI118
aI118
aI118
aI118
aI118
aI118
aI118
aI118
aI118
aI118
aI118
aI118
aI118
aI118
aI118
aI118
aI118
aI118
aI118
aI118
aI118
aI118
aI118
aI118
aI118
aI118
aI118
aI118
aI118
aI118
aI118
aI118
aI118
aI118
aI118
aI118
aI119
aI120
aI121
aI122
aI123
aI124
aI124
aI124
aI124
aI124
aI124
aI124
aI124
aI124
aI124
aI124
aI124
aI124
aI124
aI124
aI124
aI124
aI124
aI124
aI124
aI124
aI124
aI124
aI124
aI124
aI124
aI124
aI124
aI124
aI124
aI124
aI124
aI124
aI124
aI124
aI124
aI124
aI124
aI124
aI124
aI124
aI124
aI124
aI124
aI124
aI124
aI124
aI124
aI124
aI124
aI124
aI124
aI124
aI124
aI124
aI124
aI124
aI124
aI124
aI124
aI124
aI124
aI124
aI124
aI124
aI124
aI124
aI124
aI124
aI124
aI124
aI124
aI124
aI124
aI124
aI124
aI124
aI124
aI124
aI124
aI124
aI124
aI124
aI124
aI124
aI124
aI124
aI124
aI124
aI124
aI124
aI124
aI124
aI124
aI124
aI124
aI124
aI124
aI124
aI124
aI124
aI124
aI124
aI124
aI124
aI124
aI124
aI124
aI124
aI124
aI124
aI124
aI124
aI124
aI124
aI124
aI124
aI124
aI124
aI124
aI124
aI124
aI124
aI124
aI124
aI124
aI124
aI124
aI124
aI124
aI124
aI124
aI124
aI124
aI124
aI124
aI124
aI124
aI124
aI124
aI124
aI124
aI124
aI124
aI124
aI124
aI124
aI124
aI124
aI124
aI124
aI124
aI124
aI124
aI124
aI124
aI124
aI124
aI124
aI124
aI124
aI124
aI124
aI124
aI124
aI124
aI124
aI124
aI124
aI124
aI124
aI124
aI124
aI124
aI124
aI124
aI124
aa(lp9
I180
aI180
aI180
aI180
aI180
aI180
aI180
aI180
aI180
aI180
aI180
aI180
aI180
aI180
aI180
aI180
aI180
aI180
aI180
aI180
aI180
aI180
aI180
aI180
aI180
aI180
aI180
aI180
aI180
aI180
aI180
aI180
aI180
aI180
aI180
aI180
aI180
aI180
aI180
aI180
aI180
aI181
aI182
aI183
aI184
aI185
aI186
aI187
aI188
aI189
aI190
aI190
aI190
aI190
aI190
aI190
aI191
aI192
aI193
aI194
aI195
aI196
aI197
aI197
aI197
aI197
aI197
aI197
aI197
aI197
aI197
aI197
aI197
aI197
aI197
aI197
aI197
aI197
aI197
aI197
aI197
aI197
aI196
aI195
aI194
aI193
aI192
aI191
aI190
aI190
aI190
aI190
aI190
aI190
aI190
aI190
aI190
aI190
aI190
aI190
aI190
aI189
aI188
aI187
aI186
aI186
aI186
aI186
aI186
aI186
aI186
aI186
aI186
aI186
aI186
aI186
aI185
aI184
aI183
aI182
aI181
aI180
aI179
aI179
aI179
aI179
aI179
aI179
aI179
aI179
aI178
aI177
aI176
aI175
aI174
aI173
aI172
aI172
aI172
aI172
aI172
aI172
aI172
aI171
aI170
aI169
aI168
aI167
aI166
aI165
aI165
aI165
aI165
aI165
aI165
aI165
aI164
aI163
aI162
aI161
aI160
aI159
aI158
aI158
aI158
aI158
aI158
aI158
aI158
aI158
aI158
aI158
aI158
aI158
aI158
aI158
aI158
aI158
aI158
aI158
aI158
aI158
aI158
aI158
aI158
aI158
aI158
aI159
aI160
aI161
aI162
aI163
aI164
aI165
aI165
aI165
aI165
aI165
aI165
aI165
aI165
aI165
aI165
aI165
aI165
aI165
aI165
aI165
aI165
aI165
aI165
aI165
aI165
aI165
aI165
aI165
aI165
aI165
aI165
aI165
aI165
aI165
aI165
aI165
aI165
aI165
aI165
aI165
aI165
aI165
aI165
aI165
aI165
aI165
aI165
aI165
aI165
aI165
aI165
aI165
aI165
aI165
aI165
aI165
aI165
aI165
aI165
aI165
aI165
aI165
aI165
aI165
aI165
aI165
aI165
aI165
aI165
aI165
aI165
aI165
aI165
aI165
aI165
aI165
aI165
aI165
aI165
aI165
aI165
aI165
aI165
aI165
aI165
aI165
aI165
aI165
aI165
aI165
aI165
aI165
aI165
aI165
aI165
aI165
aI165
aI165
aI165
aI165
aI165
aI165
aI165
aI165
aI165
aI165
aI165
aI165
aI165
aI165
aI165
aI165
aI165
aI165
aI165
aa(lp10
I270
aI270
aI270
aI270
aI270
aI270
aI270
aI270
aI270
aI270
aI270
aI270
aI270
aI270
aI270
aI270
aI270
aI270
aI270
aI270
aI270
aI270
aI270
aI270
aI270
aI270
aI270
aI270
aI270
aI270
aI270
aI270
aI270
aI270
aI270
aI270
aI270
aI270
aI270
aI270
aI270
aI270
aI270
aI270
aI270
aI270
aI270
aI270
aI270
aI270
aI270
aI270
aI270
aI270
aI270
aI270
aI270
aI270
aI270
aI270
aI270
aI270
aI269
aI268
aI267
aI266
aI265
aI264
aI263
aI262
aI261
aI260
aI259
aI258
aI257
aI256
aI255
aI254
aI253
aI252
aI251
aI250
aI249
aI248
aI247
aI246
aI245
aI244
aI243
aI242
aI241
aI240
aI239
aI238
aI237
aI236
aI235
aI234
aI233
aI232
aI231
aI230
aI229
aI228
aI227
aI226
aI225
aI224
aI223
aI222
aI221
aI221
aI221
aI221
aI221
aI221
aI221
aI221
aI221
aI221
aI221
aI221
aI221
aI221
aI221
aI220
aI219
aI218
aI217
aI216
aI215
aI214
aI213
aI212
aI212
aI212
aI212
aI212
aI212
aI212
aI212
aI212
aI212
aI212
aI212
aI211
aI210
aI209
aI208
aI207
aI206
aI205
aI204
aI204
aI204
aI204
aI204
aI204
aI204
aI204
aI204
aI204
aI204
aI204
aI204
aI204
aI203
aI202
aI201
aI200
aI199
aI198
aI197
aI196
aI195
aI195
aI195
aI195
aI195
aI195
aI195
aI195
aI195
aI195
aI195
aI195
aI195
aI195
aI195
aI195
aI195
aI195
aI195
aI195
aI195
aI195
aI195
aI195
aI195
aI195
aI195
aI195
aI195
aI195
aI196
aI197
aI198
aI199
aI200
aI201
aI202
aI203
aI204
aI205
aI205
aI205
aI205
aI205
aI205
aI205
aI205
aI205
aI205
aI205
aI205
aI205
aI205
aI205
aI205
aI205
aI205
aI205
aI205
aI205
aI205
aI205
aI205
aI204
aI203
aI202
aI201
aI200
aI199
aI198
aI197
aI197
aI197
aI197
aI197
aI197
aI197
aI197
aI197
aI197
aI197
aI197
aI197
aI197
aI197
aI197
aI197
aI197
aI197
aI197
aI197
aI197
aI197
aI197
aI197
aI197
aI197
aI197
aI197
aI197
aI197
aI197
aI197
aI197
aI197
aI197
aI197
aI197
aI197
aI197
aI197
aI197
aI197
aI197
aI197
aI197
aI197
aI197
aI197
aI197
aI197
aI197
aI197
aI197
aI197
aI197
aI197
aI197
aa(lp11
I0
aI0
aI0
aI0
aI0
aI0
aI0
aI0
aI0
aI0
aI0
aI0
aI0
aI0
aI0
aI0
aI0
aI0
aI0
aI0
aI0
aI0
aI0
aI0
aI0
aI0
aI0
aI0
aI0
aI0
aI0
aI0
aI0
aI0
aI0
aI0
aI0
aI0
aI0
aI0
aI0
aI0
aI0
aI0
aI0
aI0
aI0
aI0
aI1
aI2
aI3
aI4
aI5
aI6
aI7
aI8
aI8
aI8
aI8
aI8
aI8
aI8
aI8
aI8
aI8
aI8
aI8
aI8
aI8
aI8
aI8
aI8
aI8
aI8
aI8
aI8
aI8
aI8
aI8
aI8
aI8
aI8
aI8
aI8
aI8
aI8
aI8
aI8
aI8
aI8
aI8
aI8
aI8
aI8
aI9
aI10
aI11
aI12
aI13
aI14
aI15
aI15
aI15
aI15
aI15
aI15
aI15
aI15
aI15
aI15
aI15
aI15
aI16
aI17
aI18
aI19
aI20
aI21
aI22
aI22
aI22
aI22
aI22
aI22
aI22
aI22
aI22
aI22
aI22
aI22
aI22
aI22
aI22
aI22
aI22
aI22
aI23
aI24
aI25
aI26
aI27
aI28
aI29
aI29
aI29
aI29
aI29
aI29
aI29
aI29
aI29
aI29
aI29
aI29
aI29
aI29
aI29
aI29
aI29
aI29
aI29
aI29
aI29
aI29
aI29
aI29
aI29
aI29
aI29
aI29
aI29
aI29
aI29
aI29
aI29
aI29
aI29
aI29
aI29
aI29
aI29
aI29
aI29
aI29
aI29
aI29
aI29
aI29
aI29
aI29
aI29
aI29
aI29
aI29
aI29
aI29
aI29
aI29
aI29
aI29
aI29
aI29
aI29
aI29
aI29
aI29
aI29
aI29
aI29
aI29
aI29
aI29
aI29
aI29
aI29
aI29
aI29
aI29
aI29
aI29
aI29
aI29
aI29
aI29
aI29
aI29
aI29
aI29
aI29
aI29
aI29
aI29
aI29
aI29
aI29
aI29
aI29
aI29
aI29
aI29
aI29
aI29
aI29
aI29
aI29
aI29
aI29
aI29
aI29
aI29
aI29
aI29
aI29
aI29
aI29
aI29
aI29
aI29
aI29
aI29
aI29
aI29
aI29
aI29
aI29
aI29
aI29
aI29
aI29
aI29
aI29
aI29
aI29
aI29
aI29
aI29
aI29
aI29
aI29
aI29
aI29
aI29
aI29
aI29
aI29
aI29
aI29
aI29
aI29
aI29
aI29
aI29
aI29
aI29
aI29
aI29
aI29
aI29
aI29
aI29
aI29
aI29
aI29
aa(lp12
I270
aI270
aI270
aI270
aI270
aI270
aI270
aI270
aI270
aI270
aI270
aI270
aI270
aI270
aI270
aI270
aI270
aI270
aI270
aI270
aI270
aI270
aI270
aI270
aI270
aI270
aI270
aI270
aI270
aI270
aI270
aI270
aI270
aI270
aI270
aI270
aI270
aI270
aI270
aI270
aI270
aI270
aI271
aI272
aI273
aI274
aI275
aI276
aI277
aI277
aI277
aI277
aI277
aI277
aI277
aI277
aI278
aI279
aI280
aI281
aI282
aI283
aI283
aI283
aI283
aI283
aI283
aI283
aI283
aI284
aI285
aI286
aI287
aI288
aI289
aI290
aI290
aI290
aI290
aI290
aI291
aI292
aI293
aI294
aI295
aI296
aI297
aI297
aI297
aI297
aI297
aI297
aI297
aI297
aI297
aI297
aI297
aI297
aI297
aI297
aI297
aI297
aI297
aI297
aI297
aI297
aI297
aI297
aI297
aI297
aI297
aI297
aI297
aI297
aI297
aI297
aI297
aI297
aI297
aI297
aI297
aI297
aI297
aI297
aI297
aI297
aI297
aI297
aI297
aI297
aI297
aI297
aI297
aI297
aI297
aI297
aI297
aI297
aI297
aI297
aI297
aI297
aI297
aI297
aI297
aI297
aI297
aI297
aI297
aI297
aI297
aI297
aI297
aI297
aI297
aI297
aI297
aI297
aI297
aI297
aI297
aI297
aI297
aI297
aI297
aI297
aI297
aI297
aI297
aI297
aI297
aI297
aI297
aI297
aI297
aI297
aI297
aI297
aI297
aI297
aI297
aI297
aI297
aI297
aI297
aI297
aI297
aI297
aI297
aI297
aI297
aI297
aI297
aI297
aI297
aI297
aI297
aI297
aI297
aI297
aI297
aI297
aI297
aI297
aI297
aI297
aI297
aI297
aI297
aI297
aI297
aI297
aI297
aI297
aI297
aI297
aI297
aI297
aI297
aI297
aI297
aI297
aI297
aI297
aI297
aI297
aI297
aI297
aI297
aI297
aI297
aI297
aI297
aI297
aI297
aI297
aI297
aI297
aI297
aI297
aI297
aI297
aI297
aI297
aI297
aI297
aI297
aI297
aI297
aI297
aI297
aI297
aI297
aI297
aI297
aI297
aI297
aI297
aI297
aI297
aI297
aI297
aI297
aI297
aI297
aI297
aI297
aI297
aI297
aI297
aI297
aI297
aI297
aI297
aI297
aI297
aI297
aI297
aI297
aI297
aI297
aI297
aI297
aI297
aI297
aI297
aI297
aI297
aI297
aI297
aI297
aI297
aI297
aI297
aI297
aI297
aI297
aI297
aI297
aI297
aI297
aI297
aI297
aa(lp13
I270
aI270
aI270
aI270
aI270
aI270
aI270
aI270
aI270
aI270
aI270
aI270
aI270
aI270
aI270
aI270
aI270
aI270
aI270
aI270
aI270
aI270
aI270
aI270
aI270
aI270
aI270
aI270
aI270
aI270
aI270
aI270
aI270
aI270
aI270
aI270
aI270
aI270
aI270
aI270
aI270
aI270
aI270
aI271
aI272
aI273
aI274
aI275
aI276
aI276
aI276
aI276
aI276
aI276
aI276
aI276
aI276
aI276
aI276
aI276
aI276
aI276
aI276
aI276
aI276
aI276
aI276
aI276
aI276
aI276
aI276
aI276
aI276
aI276
aI276
aI276
aI276
aI276
aI276
aI276
aI277
aI278
aI279
aI280
aI281
aI282
aI283
aI283
aI283
aI283
aI283
aI283
aI284
aI285
aI286
aI287
aI288
aI289
aI290
aI290
aI290
aI290
aI290
aI290
aI291
aI292
aI293
aI294
aI295
aI296
aI296
aI296
aI296
aI296
aI296
aI296
aI296
aI296
aI296
aI296
aI296
aI296
aI296
aI296
aI296
aI296
aI296
aI296
aI296
aI296
aI296
aI296
aI296
aI296
aI296
aI296
aI296
aI296
aI296
aI296
aI296
aI296
aI296
aI297
aI298
aI299
aI300
aI301
aI302
aI302
aI302
aI302
aI302
aI302
aI302
aI302
aI302
aI302
aI302
aI302
aI302
aI302
aI302
aI302
aI302
aI302
aI302
aI302
aI302
aI302
aI302
aI302
aI302
aI302
aI302
aI302
aI302
aI302
aI302
aI302
aI302
aI302
aI302
aI302
aI302
aI302
aI302
aI302
aI302
aI302
aI302
aI302
aI302
aI302
aI302
aI302
aI302
aI302
aI302
aI302
aI302
aI302
aI302
aI302
aI302
aI302
aI302
aI302
aI302
aI302
aI302
aI302
aI302
aI302
aI302
aI302
aI302
aI302
aI302
aI302
aI302
aI302
aI302
aI302
aI302
aI302
aI302
aI302
aI302
aI302
aI302
aI302
aI302
aI302
aI302
aI302
aI302
aI302
aI302
aI302
aI302
aI302
aI302
aI302
aI302
aI302
aI302
aI302
aI302
aI302
aI302
aI302
aI302
aI302
aI302
aI302
aI302
aI302
aI302
aI302
aI302
aI302
aI302
aI302
aI302
aI302
aI302
aI302
aI302
aI302
aI302
aI302
aI302
aI302
aI302
aI302
aI302
aI302
aI302
aI302
aI302
aI302
aI302
aI302
aI302
aI302
aI302
aI302
aI302
aI302
aI302
aI302
aI302
aI302
aI302
aI302
aI302
aI302
aI302
aI302
aI302
aI302
aa(lp14
I0
aI0
aI0
aI0
aI0
aI0
aI0
aI0
aI0
aI0
aI0
aI0
aI0
aI0
aI0
aI0
aI0
aI0
aI0
aI0
aI0
aI0
aI0
aI0
aI0
aI0
aI0
aI0
aI0
aI0
aI0
aI0
aI0
aI0
aI0
aI0
aI0
aI0
aI0
aI0
aI1
aI2
aI3
aI4
aI5
aI6
aI7
aI8
aI9
aI9
aI9
aI9
aI9
aI10
aI11
aI12
aI13
aI14
aI15
aI16
aI17
aI17
aI17
aI17
aI18
aI19
aI20
aI21
aI22
aI23
aI24
aI25
aI25
aI25
aI25
aI26
aI27
aI28
aI29
aI30
aI31
aI32
aI33
aI33
aI33
aI33
aI34
aI35
aI36
aI37
aI38
aI39
aI40
aI40
aI40
aI40
aI40
aI41
aI42
aI43
aI44
aI45
aI46
aI47
aI47
aI47
aI47
aI47
aI48
aI49
aI50
aI51
aI52
aI53
aI53
aI53
aI53
aI53
aI54
aI55
aI56
aI57
aI58
aI59
aI60
aI60
aI60
aI60
aI60
aI61
aI62
aI63
aI64
aI65
aI66
aI67
aI67
aI67
aI67
aI67
aI67
aI67
aI67
aI67
aI67
aI67
aI67
aI67
aI67
aI67
aI67
aI67
aI67
aI67
aI67
aI67
aI67
aI67
aI67
aI67
aI67
aI67
aI67
aI67
aI67
aI68
aI69
aI70
aI71
aI71
aI71
aI71
aI71
aI71
aI71
aI71
aI71
aI71
aI71
aI71
aI71
aI71
aI71
aI71
aI71
aI71
aI71
aI71
aI71
aI71
aI71
aI71
aI71
aI71
aI71
aI71
aI71
aI71
aI71
aI71
aI71
aI71
aI71
aI71
aI71
aI71
aI71
aI71
aI71
aI71
aI71
aI71
aI71
aI71
aI71
aI71
aI71
aI71
aI71
aI71
aI71
aI71
aI71
aI71
aI71
aI71
aI71
aI71
aI71
aI71
aI71
aI71
aI71
aI71
aI71
aI71
aI71
aI71
aI71
aI71
aI71
aI71
aI71
aI71
aI71
aI71
aI71
aI71
aI71
aI71
aI71
aI71
aI71
aI71
aI71
aI71
aI71
aI71
aI71
aI71
aI71
aI71
aI71
aI71
aI71
aI71
aI71
aI71
aI71
aI71
aI71
aI71
aI71
aI71
aI71
aI71
aI71
aI71
aI71
aI71
aI71
aI71
aI71
aI71
aI71
aI71
aI71
aI71
aI71
aI71
aI71
aI71
aI71
aI71
aI71
aI71
aI71
aI71
aI71
aI71
aI71
aI71
aI71
aa(lp15
I90
aI90
aI90
aI90
aI90
aI90
aI90
aI90
aI90
aI90
aI90
aI90
aI90
aI90
aI90
aI90
aI90
aI90
aI90
aI90
aI90
aI90
aI90
aI90
aI90
aI90
aI90
aI90
aI90
aI90
aI90
aI90
aI90
aI90
aI90
aI90
aI90
aI90
aI90
aI90
aI90
aI90
aI90
aI90
aI90
aI90
aI90
aI90
aI90
aI91
aI92
aI93
aI94
aI95
aI96
aI97
aI98
aI99
aI99
aI99
aI99
aI99
aI99
aI100
aI101
aI102
aI103
aI104
aI105
aI106
aI106
aI106
aI106
aI106
aI106
aI106
aI107
aI108
aI109
aI110
aI111
aI112
aI112
aI112
aI112
aI112
aI112
aI113
aI114
aI115
aI116
aI117
aI118
aI118
aI118
aI118
aI118
aI118
aI119
aI120
aI121
aI122
aI123
aI124
aI124
aI124
aI124
aI124
aI124
aI125
aI126
aI127
aI128
aI129
aI130
aI130
aI130
aI130
aI130
aI130
aI131
aI132
aI133
aI134
aI135
aI136
aI137
aI137
aI137
aI137
aI137
aI138
aI139
aI140
aI141
aI142
aI143
aI144
aI144
aI144
aI144
aI144
aI145
aI146
aI147
aI148
aI149
aI150
aI151
aI151
aI151
aI151
aI151
aI152
aI153
aI154
aI155
aI156
aI157
aI158
aI158
aI158
aI158
aI158
aI158
aI158
aI158
aI158
aI158
aI158
aI158
aI158
aI158
aI158
aI158
aI158
aI158
aI158
aI159
aI160
aI161
aI162
aI162
aI162
aI162
aI162
aI162
aI162
aI162
aI162
aI162
aI162
aI162
aI162
aI162
aI162
aI162
aI162
aI162
aI162
aI162
aI162
aI162
aI162
aI162
aI162
aI162
aI162
aI162
aI162
aI162
aI162
aI162
aI162
aI162
aI162
aI162
aI162
aI162
aI162
aI162
aI162
aI162
aI162
aI162
aI162
aI162
aI162
aI162
aI162
aI162
aI162
aI162
aI162
aI162
aI162
aI162
aI162
aI162
aI162
aI162
aI162
aI162
aI162
aI162
aI162
aI162
aI162
aI162
aI162
aI162
aI162
aI162
aI162
aI162
aI162
aI162
aI162
aI162
aI162
aI162
aI162
aI162
aI162
aI162
aI162
aI162
aI162
aI162
aI162
aI162
aI162
aI162
aI162
aI162
aI162
aI162
aI162
aI162
aI162
aI162
aI162
aI162
aI162
aI162
aI162
aI162
aI162
aI162
aI162
aI162
aI162
aI162
aI162
aI162
aI162
aI162
aI162
aI162
aI162
aI162
aI162
aI162
aa(lp16
I0
aI0
aI0
aI0
aI0
aI0
aI0
aI0
aI0
aI0
aI0
aI0
aI0
aI0
aI0
aI0
aI0
aI0
aI0
aI0
aI0
aI0
aI0
aI0
aI0
aI0
aI0
aI0
aI0
aI0
aI0
aI0
aI0
aI0
aI0
aI0
aI0
aI0
aI0
aI0
aI0
aI0
aI0
aI0
aI0
aI0
aI0
aI0
aI1
aI2
aI3
aI4
aI5
aI6
aI7
aI7
aI7
aI7
aI7
aI7
aI7
aI7
aI7
aI8
aI9
aI10
aI11
aI12
aI13
aI13
aI13
aI13
aI13
aI13
aI13
aI13
aI13
aI13
aI13
aI13
aI13
aI13
aI14
aI15
aI16
aI17
aI18
aI19
aI19
aI19
aI19
aI19
aI19
aI19
aI19
aI19
aI19
aI19
aI19
aI19
aI19
aI19
aI19
aI19
aI19
aI19
aI19
aI19
aI19
aI19
aI19
aI19
aI19
aI19
aI19
aI19
aI19
aI19
aI19
aI19
aI19
aI19
aI19
aI19
aI19
aI19
aI19
aI19
aI19
aI19
aI19
aI19
aI19
aI19
aI19
aI19
aI19
aI19
aI19
aI19
aI19
aI19
aI19
aI19
aI19
aI19
aI19
aI19
aI19
aI19
aI19
aI19
aI19
aI19
aI19
aI19
aI19
aI19
aI19
aI19
aI19
aI19
aI19
aI19
aI19
aI19
aI19
aI19
aI19
aI19
aI19
aI19
aI19
aI19
aI19
aI19
aI19
aI19
aI19
aI19
aI19
aI19
aI19
aI19
aI19
aI19
aI19
aI19
aI19
aI19
aI19
aI19
aI19
aI19
aI19
aI19
aI19
aI19
aI19
aI19
aI19
aI19
aI19
aI19
aI19
aI19
aI19
aI19
aI19
aI19
aI19
aI19
aI19
aI19
aI19
aI19
aI19
aI19
aI19
aI19
aI19
aI19
aI19
aI19
aI19
aI19
aI19
aI19
aI19
aI19
aI19
aI19
aI19
aI19
aI19
aI19
aI19
aI19
aI19
aI19
aI19
aI19
aI19
aI19
aI19
aI19
aI19
aI19
aI19
aI19
aI19
aI19
aI19
aI19
aI19
aI19
aI19
aI19
aI19
aI19
aI19
aI19
aI19
aI19
aI19
aI19
aI19
aI19
aI19
aI19
aI19
aI19
aI19
aI19
aI19
aI19
aI19
aI19
aI19
aI19
aI19
aI19
aI19
aI19
aI19
aI19
aI19
aI19
aI19
aI19
aI19
aI19
aI19
aI19
aI19
aI19
aI19
aI19
aI19
aI19
aI19
aI19
aI19
aa(lp17
I180
aI180
aI180
aI180
aI180
aI180
aI180
aI180
aI180
aI180
aI180
aI180
aI180
aI180
aI180
aI180
aI180
aI180
aI180
aI180
aI180
aI180
aI180
aI180
aI180
aI180
aI180
aI180
aI180
aI180
aI180
aI180
aI180
aI180
aI180
aI180
aI180
aI180
aI180
aI180
aI180
aI180
aI180
aI180
aI180
aI180
aI180
aI180
aI180
aI180
aI180
aI180
aI180
aI180
aI180
aI180
aI180
aI180
aI180
aI180
aI180
aI180
aI180
aI180
aI179
aI178
aI177
aI176
aI175
aI174
aI173
aI173
aI173
aI173
aI173
aI173
aI173
aI173
aI173
aI173
aI173
aI173
aI173
aI173
aI173
aI173
aI173
aI173
aI173
aI172
aI171
aI170
aI169
aI168
aI167
aI166
aI165
aI164
aI163
aI163
aI163
aI163
aI163
aI163
aI163
aI163
aI163
aI163
aI163
aI163
aI163
aI163
aI163
aI163
aI163
aI163
aI163
aI163
aI163
aI163
aI163
aI163
aI163
aI163
aI163
aI163
aI163
aI163
aI163
aI163
aI163
aI163
aI163
aI163
aI163
aI163
aI163
aI163
aI163
aI163
aI162
aI161
aI160
aI159
aI158
aI157
aI156
aI155
aI155
aI155
aI155
aI155
aI155
aI155
aI155
aI155
aI155
aI155
aI155
aI155
aI155
aI155
aI155
aI155
aI155
aI155
aI155
aI155
aI155
aI155
aI155
aI155
aI155
aI155
aI155
aI155
aI155
aI156
aI157
aI158
aI159
aI160
aI160
aI160
aI160
aI160
aI160
aI160
aI160
aI160
aI160
aI160
aI160
aI160
aI160
aI160
aI160
aI160
aI160
aI160
aI160
aI160
aI160
aI160
aI160
aI160
aI160
aI160
aI160
aI160
aI160
aI160
aI160
aI160
aI160
aI160
aI160
aI160
aI160
aI160
aI160
aI160
aI160
aI160
aI160
aI160
aI160
aI160
aI160
aI160
aI160
aI160
aI160
aI160
aI160
aI160
aI160
aI160
aI160
aI160
aI160
aI160
aI160
aI160
aI160
aI160
aI160
aI160
aI160
aI160
aI160
aI160
aI160
aI160
aI160
aI160
aI160
aI160
aI160
aI160
aI160
aI160
aI160
aI160
aI160
aI160
aI160
aI160
aI160
aI160
aI160
aI160
aI160
aI160
aI160
aI160
aI160
aI160
aI160
aI160
aI160
aI160
aI160
aI160
aI160
aI160
aI160
aI160
aI160
aI160
aI160
aI160
aI160
aI160
aI160
aI160
aI160
aI160
aI160
aI160
aI160
aI160
aI160
aa(lp18
I270
aI270
aI270
aI270
aI270
aI270
aI270
aI270
aI270
aI270
aI270
aI270
aI270
aI270
aI270
aI270
aI270
aI270
aI270
aI270
aI270
aI270
aI270
aI270
aI270
aI270
aI270
aI270
aI270
aI270
aI270
aI270
aI270
aI270
aI270
aI270
aI270
aI271
aI272
aI273
aI274
aI275
aI276
aI277
aI278
aI279
aI279
aI279
aI279
aI279
aI279
aI280
aI281
aI282
aI283
aI284
aI285
aI286
aI286
aI286
aI286
aI286
aI287
aI288
aI289
aI290
aI291
aI292
aI293
aI293
aI293
aI293
aI294
aI295
aI296
aI297
aI298
aI299
aI300
aI300
aI300
aI300
aI300
aI301
aI302
aI303
aI304
aI305
aI306
aI307
aI307
aI307
aI307
aI307
aI307
aI307
aI307
aI307
aI307
aI307
aI307
aI307
aI307
aI307
aI307
aI307
aI307
aI307
aI307
aI307
aI307
aI307
aI307
aI307
aI307
aI307
aI307
aI307
aI307
aI307
aI307
aI307
aI307
aI307
aI307
aI307
aI307
aI307
aI307
aI307
aI307
aI307
aI307
aI307
aI307
aI307
aI307
aI307
aI307
aI307
aI307
aI307
aI307
aI307
aI307
aI307
aI307
aI307
aI307
aI307
aI307
aI307
aI307
aI307
aI307
aI307
aI307
aI307
aI307
aI307
aI307
aI307
aI307
aI307
aI307
aI307
aI307
aI307
aI307
aI307
aI307
aI307
aI307
aI307
aI307
aI307
aI307
aI307
aI307
aI307
aI307
aI307
aI307
aI307
aI307
aI307
aI307
aI307
aI307
aI307
aI307
aI307
aI307
aI307
aI307
aI307
aI307
aI307
aI307
aI307
aI307
aI307
aI307
aI307
aI307
aI307
aI307
aI307
aI307
aI307
aI307
aI307
aI307
aI307
aI307
aI307
aI307
aI307
aI307
aI307
aI307
aI307
aI307
aI307
aI307
aI307
aI307
aI307
aI307
aI307
aI307
aI307
aI307
aI307
aI307
aI307
aI307
aI307
aI307
aI307
aI307
aI307
aI307
aI307
aI307
aI307
aI307
aI307
aI307
aI307
aI307
aI307
aI307
aI307
aI307
aI307
aI307
aI307
aI307
aI307
aI307
aI307
aI307
aI307
aI307
aI307
aI307
aI307
aI307
aI307
aI307
aI307
aI307
aI307
aI307
aI307
aI307
aI307
aI307
aI307
aI307
aI307
aI307
aI307
aI307
aI307
aI307
aI307
aI307
aI307
aI307
aI307
aI307
aI307
aI307
aI307
aI307
aI307
aI307
aI307
aI307
aI307
aI307
aa(lp19
I0
aI0
aI0
aI0
aI0
aI0
aI0
aI0
aI0
aI0
aI0
aI0
aI0
aI0
aI0
aI0
aI0
aI0
aI0
aI0
aI0
aI0
aI0
aI0
aI0
aI0
aI0
aI0
aI0
aI0
aI0
aI0
aI0
aI0
aI0
aI0
aI0
aI0
aI0
aI0
aI0
aI0
aI0
aI0
aI0
aI0
aI0
aI0
aI0
aI0
aI0
aI0
aI0
aI0
aI0
aI0
aI0
aI0
aI0
aI0
aI0
aI0
aI0
aI0
aI0
aI0
aI0
aI0
aI0
aI0
aI0
aI0
aI0
aI0
aI0
aI0
aI0
aI359
aI358
aI357
aI356
aI355
aI354
aI353
aI352
aI351
aI351
aI351
aI351
aI351
aI351
aI351
aI351
aI351
aI351
aI350
aI349
aI348
aI347
aI346
aI345
aI344
aI343
aI342
aI342
aI342
aI342
aI342
aI342
aI342
aI342
aI341
aI340
aI339
aI338
aI337
aI336
aI335
aI335
aI335
aI335
aI335
aI335
aI335
aI335
aI334
aI333
aI332
aI331
aI330
aI329
aI328
aI328
aI328
aI328
aI328
aI328
aI328
aI328
aI328
aI327
aI326
aI325
aI324
aI324
aI324
aI324
aI324
aI324
aI324
aI324
aI324
aI324
aI324
aI324
aI324
aI324
aI324
aI324
aI324
aI324
aI324
aI324
aI324
aI324
aI324
aI323
aI322
aI321
aI320
aI319
aI318
aI318
aI318
aI318
aI318
aI318
aI318
aI318
aI318
aI318
aI318
aI318
aI318
aI318
aI318
aI318
aI318
aI318
aI318
aI318
aI318
aI318
aI318
aI318
aI318
aI317
aI316
aI315
aI314
aI314
aI314
aI314
aI314
aI314
aI314
aI314
aI314
aI314
aI314
aI314
aI313
aI312
aI311
aI310
aI309
aI308
aI307
aI306
aI306
aI306
aI306
aI306
aI306
aI306
aI306
aI306
aI306
aI306
aI306
aI306
aI306
aI306
aI305
aI304
aI303
aI302
aI301
aI301
aI301
aI301
aI301
aI301
aI301
aI301
aI301
aI301
aI301
aI301
aI301
aI301
aI301
aI301
aI301
aI301
aI301
aI301
aI301
aI301
aI301
aI301
aI301
aI301
aI301
aI301
aI301
aI301
aI301
aI301
aI301
aI301
aI301
aI301
aI301
aI301
aI301
aI301
aI301
aI301
aI301
aI301
aI301
aI301
aI301
aI301
aI301
aI301
aI301
aI301
aI301
aI301
aI301
aI301
aI301
aI301
aI301
aI301
aI301
aI301
aI301
aI301
aI301
aI301
aa(lp20
I0
aI0
aI0
aI0
aI0
aI0
aI0
aI0
aI0
aI0
aI0
aI0
aI0
aI0
aI0
aI0
aI0
aI0
aI0
aI0
aI0
aI0
aI0
aI0
aI0
aI0
aI0
aI0
aI0
aI0
aI0
aI0
aI0
aI0
aI0
aI0
aI0
aI0
aI0
aI0
aI0
aI0
aI0
aI0
aI1
aI2
aI3
aI4
aI5
aI6
aI7
aI8
aI9
aI10
aI11
aI12
aI12
aI12
aI12
aI12
aI13
aI14
aI15
aI16
aI17
aI18
aI19
aI20
aI20
aI20
aI20
aI21
aI22
aI23
aI24
aI25
aI26
aI27
aI28
aI28
aI28
aI29
aI30
aI31
aI32
aI33
aI34
aI35
aI36
aI36
aI36
aI36
aI37
aI38
aI39
aI40
aI41
aI42
aI43
aI43
aI43
aI43
aI43
aI44
aI45
aI46
aI47
aI48
aI49
aI50
aI50
aI50
aI50
aI51
aI52
aI53
aI54
aI55
aI56
aI57
aI57
aI57
aI57
aI57
aI58
aI59
aI60
aI61
aI62
aI63
aI63
aI63
aI63
aI63
aI64
aI65
aI66
aI67
aI68
aI69
aI70
aI70
aI70
aI70
aI70
aI70
aI70
aI70
aI70
aI70
aI70
aI71
aI72
aI73
aI74
aI75
aI76
aI77
aI78
aI78
aI78
aI78
aI78
aI78
aI78
aI78
aI78
aI78
aI78
aI78
aI78
aI78
aI78
aI78
aI78
aI78
aI78
aI78
aI78
aI78
aI78
aI78
aI78
aI78
aI78
aI78
aI78
aI78
aI78
aI78
aI78
aI78
aI78
aI78
aI78
aI78
aI78
aI78
aI78
aI78
aI78
aI78
aI78
aI78
aI78
aI78
aI78
aI78
aI78
aI78
aI78
aI78
aI78
aI78
aI78
aI78
aI78
aI78
aI78
aI78
aI78
aI78
aI78
aI78
aI78
aI78
aI78
aI78
aI78
aI78
aI78
aI78
aI78
aI78
aI78
aI78
aI78
aI78
aI78
aI78
aI78
aI78
aI78
aI78
aI78
aI78
aI78
aI78
aI78
aI78
aI78
aI78
aI78
aI78
aI78
aI78
aI78
aI78
aI78
aI78
aI78
aI78
aI78
aI78
aI78
aI78
aI78
aI78
aI78
aI78
aI78
aI78
aI78
aI78
aI78
aI78
aI78
aI78
aI78
aI78
aI78
aI78
aI78
aI78
aI78
aI78
aI78
aI78
aI78
aI78
aI78
aI78
aI78
aI78
aI78
aI78
aI78
aI78
aI78
aI78
aI78
aI78
aI78
aa(lp21
I90
aI90
aI90
aI90
aI90
aI90
aI90
aI90
aI90
aI90
aI90
aI90
aI90
aI90
aI90
aI90
aI90
aI90
aI90
aI90
aI90
aI90
aI90
aI90
aI90
aI90
aI90
aI90
aI90
aI90
aI90
aI90
aI90
aI90
aI90
aI90
aI90
aI90
aI90
aI90
aI90
aI90
aI90
aI90
aI90
aI91
aI92
aI93
aI94
aI94
aI94
aI94
aI94
aI94
aI94
aI94
aI94
aI94
aI94
aI94
aI94
aI94
aI94
aI94
aI94
aI94
aI94
aI93
aI92
aI91
aI90
aI89
aI88
aI87
aI86
aI85
aI85
aI85
aI85
aI85
aI85
aI85
aI85
aI85
aI85
aI84
aI83
aI82
aI81
aI80
aI79
aI78
aI77
aI77
aI77
aI77
aI77
aI77
aI77
aI77
aI77
aI77
aI76
aI75
aI74
aI73
aI72
aI71
aI70
aI70
aI70
aI70
aI70
aI70
aI70
aI70
aI70
aI69
aI68
aI67
aI66
aI65
aI65
aI65
aI65
aI65
aI65
aI65
aI65
aI65
aI65
aI64
aI63
aI62
aI61
aI61
aI61
aI61
aI61
aI61
aI61
aI61
aI61
aI61
aI61
aI61
aI61
aI61
aI61
aI61
aI61
aI61
aI61
aI61
aI61
aI61
aI61
aI61
aI60
aI59
aI58
aI57
aI56
aI55
aI54
aI53
aI52
aI51
aI50
aI49
aI49
aI49
aI49
aI49
aI49
aI49
aI49
aI49
aI49
aI49
aI49
aI49
aI49
aI49
aI49
aI49
aI49
aI49
aI49
aI49
aI49
aI49
aI49
aI49
aI49
aI49
aI49
aI49
aI49
aI49
aI49
aI49
aI49
aI50
aI51
aI52
aI53
aI53
aI53
aI53
aI53
aI53
aI53
aI53
aI53
aI53
aI53
aI53
aI53
aI53
aI53
aI53
aI53
aI53
aI53
aI53
aI54
aI55
aI56
aI57
aI58
aI59
aI60
aI61
aI61
aI61
aI61
aI61
aI61
aI61
aI61
aI61
aI61
aI61
aI61
aI61
aI61
aI61
aI61
aI61
aI61
aI61
aI61
aI61
aI61
aI61
aI61
aI61
aI61
aI61
aI61
aI61
aI61
aI61
aI61
aI61
aI61
aI61
aI61
aI61
aI61
aI61
aI61
aI61
aI61
aI61
aI61
aI61
aI61
aI61
aI61
aI61
aI61
aI61
aI61
aI61
aI61
aI61
aI61
aI61
aI61
aI61
aI61
aI61
aI61
aI61
aI61
aI61
aI61
aI61
aI61
aI61
aa(lp22
I270
aI270
aI270
aI270
aI270
aI270
aI270
aI270
aI270
aI270
aI270
aI270
aI270
aI270
aI270
aI270
aI270
aI270
aI270
aI270
aI270
aI270
aI270
aI270
aI270
aI270
aI270
aI270
aI270
aI270
aI270
aI270
aI270
aI270
aI270
aI271
aI272
aI273
aI274
aI275
aI276
aI277
aI278
aI279
aI280
aI281
aI282
aI283
aI284
aI285
aI286
aI287
aI288
aI289
aI290
aI291
aI292
aI293
aI294
aI295
aI296
aI297
aI298
aI299
aI300
aI301
aI302
aI303
aI304
aI305
aI306
aI307
aI308
aI309
aI310
aI311
aI312
aI313
aI314
aI315
aI316
aI317
aI318
aI319
aI320
aI321
aI322
aI323
aI324
aI325
aI326
aI326
aI326
aI326
aI326
aI326
aI326
aI326
aI326
aI326
aI326
aI327
aI328
aI329
aI330
aI331
aI332
aI333
aI334
aI334
aI334
aI334
aI334
aI334
aI334
aI335
aI336
aI337
aI338
aI339
aI340
aI341
aI341
aI341
aI341
aI341
aI341
aI341
aI341
aI341
aI341
aI341
aI341
aI341
aI341
aI341
aI341
aI341
aI341
aI341
aI341
aI341
aI341
aI341
aI341
aI341
aI341
aI341
aI341
aI341
aI341
aI341
aI341
aI341
aI341
aI341
aI341
aI341
aI341
aI341
aI341
aI341
aI341
aI341
aI341
aI341
aI341
aI341
aI341
aI341
aI341
aI341
aI341
aI341
aI341
aI341
aI341
aI341
aI341
aI341
aI341
aI341
aI341
aI341
aI341
aI341
aI341
aI341
aI341
aI341
aI341
aI341
aI341
aI341
aI341
aI341
aI341
aI341
aI341
aI341
aI341
aI341
aI341
aI341
aI341
aI341
aI341
aI341
aI341
aI341
aI341
aI341
aI341
aI341
aI341
aI341
aI341
aI341
aI341
aI341
aI341
aI341
aI341
aI341
aI341
aI341
aI341
aI341
aI341
aI341
aI341
aI341
aI341
aI341
aI341
aI341
aI341
aI341
aI341
aI341
aI341
aI341
aI341
aI341
aI341
aI341
aI341
aI341
aI341
aI341
aI341
aI341
aI341
aI341
aI341
aI341
aI341
aI341
aI341
aI341
aI341
aI341
aI341
aI341
aI341
aI341
aI341
aI341
aI341
aI341
aI341
aI341
aI341
aI341
aI341
aI341
aI341
aI341
aI341
aI341
aI341
aI341
aI341
aI341
aI341
aI341
aI341
aI341
aI341
aI341
aI341
aI341
aI341
aI341
aI341
aI341
aI341
aI341
aI341
aI341
aI341
aI341
aI341
aa(lp23
I270
aI270
aI270
aI270
aI270
aI270
aI270
aI270
aI270
aI270
aI270
aI270
aI270
aI270
aI270
aI270
aI270
aI270
aI270
aI270
aI270
aI270
aI270
aI270
aI270
aI270
aI270
aI270
aI270
aI270
aI270
aI270
aI270
aI270
aI270
aI270
aI270
aI270
aI270
aI270
aI270
aI270
aI270
aI270
aI270
aI270
aI270
aI270
aI270
aI270
aI270
aI270
aI269
aI268
aI267
aI266
aI265
aI264
aI263
aI262
aI261
aI260
aI260
aI260
aI260
aI260
aI260
aI260
aI260
aI260
aI260
aI259
aI258
aI257
aI256
aI255
aI254
aI253
aI252
aI251
aI250
aI250
aI250
aI250
aI250
aI250
aI250
aI250
aI249
aI248
aI247
aI246
aI245
aI244
aI243
aI242
aI241
aI241
aI241
aI241
aI241
aI241
aI241
aI241
aI240
aI239
aI238
aI237
aI236
aI235
aI234
aI233
aI232
aI231
aI231
aI231
aI231
aI231
aI231
aI231
aI231
aI231
aI231
aI231
aI231
aI231
aI231
aI231
aI231
aI231
aI231
aI231
aI231
aI231
aI231
aI231
aI231
aI231
aI231
aI231
aI231
aI231
aI231
aI231
aI231
aI231
aI231
aI231
aI231
aI231
aI231
aI231
aI231
aI231
aI231
aI231
aI231
aI231
aI231
aI231
aI231
aI231
aI232
aI233
aI234
aI235
aI236
aI236
aI236
aI236
aI236
aI236
aI236
aI236
aI236
aI236
aI236
aI236
aI236
aI236
aI236
aI236
aI236
aI236
aI236
aI236
aI236
aI236
aI236
aI236
aI236
aI236
aI236
aI236
aI236
aI236
aI236
aI236
aI236
aI236
aI236
aI236
aI236
aI236
aI236
aI236
aI236
aI236
aI236
aI236
aI236
aI236
aI236
aI236
aI236
aI236
aI236
aI236
aI236
aI236
aI236
aI236
aI236
aI236
aI236
aI236
aI236
aI236
aI236
aI236
aI236
aI236
aI236
aI236
aI236
aI236
aI236
aI236
aI236
aI236
aI236
aI236
aI236
aI236
aI236
aI236
aI236
aI236
aI236
aI236
aI236
aI236
aI236
aI236
aI236
aI236
aI236
aI236
aI236
aI236
aI236
aI236
aI236
aI236
aI236
aI236
aI236
aI236
aI236
aI236
aI236
aI236
aI236
aI236
aI236
aI236
aI236
aI236
aI236
aI236
aI236
aI236
aI236
aI236
aI236
aI236
aI236
aI236
aI236
aI236
aI236
aI236
aI236
aI236
aI236
aI236
aI236
aI236
aI236
aI236
aI236
aI236
aI236
aa(lp24
I90
aI90
aI90
aI90
aI90
aI90
aI90
aI90
aI90
aI90
aI90
aI90
aI90
aI90
aI90
aI90
aI90
aI90
aI90
aI90
aI90
aI90
aI90
aI90
aI90
aI90
aI90
aI90
aI90
aI90
aI90
aI90
aI90
aI90
aI90
aI90
aI90
aI90
aI90
aI91
aI92
aI93
aI94
aI95
aI96
aI96
aI96
aI96
aI96
aI96
aI96
aI97
aI98
aI99
aI100
aI101
aI102
aI103
aI104
aI104
aI104
aI104
aI104
aI105
aI106
aI107
aI108
aI109
aI110
aI111
aI111
aI111
aI111
aI111
aI112
aI113
aI114
aI115
aI116
aI117
aI118
aI118
aI118
aI118
aI118
aI119
aI120
aI121
aI122
aI123
aI124
aI125
aI125
aI125
aI125
aI125
aI126
aI127
aI128
aI129
aI130
aI131
aI132
aI132
aI132
aI132
aI132
aI132
aI133
aI134
aI135
aI136
aI137
aI138
aI138
aI138
aI138
aI138
aI138
aI139
aI140
aI141
aI142
aI143
aI144
aI145
aI145
aI145
aI145
aI145
aI145
aI146
aI147
aI148
aI149
aI150
aI151
aI151
aI151
aI151
aI151
aI151
aI151
aI151
aI151
aI151
aI151
aI151
aI151
aI151
aI151
aI151
aI151
aI151
aI151
aI151
aI151
aI152
aI153
aI154
aI155
aI156
aI156
aI156
aI156
aI156
aI156
aI156
aI156
aI156
aI156
aI156
aI156
aI156
aI156
aI156
aI156
aI156
aI156
aI156
aI156
aI156
aI156
aI156
aI156
aI156
aI156
aI157
aI158
aI159
aI159
aI159
aI159
aI159
aI159
aI159
aI159
aI159
aI159
aI159
aI159
aI159
aI159
aI159
aI159
aI159
aI159
aI159
aI159
aI159
aI159
aI159
aI159
aI159
aI159
aI159
aI159
aI159
aI159
aI159
aI159
aI159
aI159
aI159
aI159
aI159
aI159
aI159
aI159
aI159
aI159
aI159
aI159
aI160
aI161
aI162
aI163
aI164
aI165
aI165
aI165
aI165
aI165
aI165
aI165
aI165
aI165
aI165
aI165
aI165
aI165
aI165
aI165
aI165
aI165
aI165
aI165
aI165
aI165
aI165
aI165
aI165
aI165
aI165
aI165
aI165
aI165
aI165
aI165
aI165
aI165
aI165
aI165
aI165
aI165
aI165
aI165
aI165
aI165
aI165
aI165
aI165
aI165
aI165
aI165
aI165
aI165
aI165
aI165
aI165
aI165
aI165
aI165
aI165
aI165
aI165
aI165
aI165
aI165
aI165
aI165
aI165
aI165
aa(lp25
I0
aI0
aI0
aI0
aI0
aI0
aI0
aI0
aI0
aI0
aI0
aI0
aI0
aI0
aI0
aI0
aI0
aI0
aI0
aI0
aI0
aI0
aI0
aI0
aI0
aI0
aI0
aI0
aI0
aI0
aI0
aI0
aI0
aI0
aI0
aI0
aI0
aI0
aI0
aI0
aI0
aI1
aI2
aI3
aI4
aI5
aI6
aI7
aI8
aI8
aI8
aI8
aI8
aI8
aI8
aI9
aI10
aI11
aI12
aI13
aI14
aI15
aI15
aI15
aI15
aI15
aI16
aI17
aI18
aI19
aI20
aI21
aI22
aI23
aI23
aI23
aI23
aI24
aI25
aI26
aI27
aI28
aI29
aI30
aI31
aI32
aI32
aI32
aI32
aI32
aI33
aI34
aI35
aI36
aI36
aI36
aI36
aI36
aI36
aI37
aI38
aI39
aI40
aI41
aI42
aI43
aI43
aI43
aI43
aI43
aI44
aI45
aI46
aI47
aI48
aI49
aI50
aI51
aI51
aI51
aI51
aI52
aI53
aI54
aI55
aI56
aI57
aI58
aI58
aI58
aI58
aI58
aI58
aI59
aI60
aI61
aI62
aI63
aI64
aI65
aI65
aI65
aI65
aI65
aI65
aI65
aI66
aI67
aI68
aI69
aI70
aI71
aI71
aI71
aI71
aI71
aI71
aI71
aI71
aI72
aI73
aI74
aI75
aI76
aI76
aI76
aI76
aI76
aI76
aI76
aI76
aI76
aI76
aI76
aI76
aI76
aI76
aI76
aI76
aI76
aI76
aI76
aI76
aI76
aI76
aI76
aI76
aI76
aI76
aI76
aI76
aI76
aI76
aI76
aI76
aI76
aI76
aI76
aI76
aI76
aI76
aI76
aI76
aI76
aI75
aI74
aI73
aI72
aI71
aI70
aI69
aI68
aI67
aI66
aI65
aI65
aI65
aI65
aI65
aI65
aI65
aI65
aI65
aI65
aI65
aI65
aI65
aI65
aI65
aI65
aI65
aI65
aI65
aI65
aI66
aI67
aI68
aI69
aI70
aI71
aI72
aI72
aI72
aI72
aI72
aI72
aI72
aI72
aI72
aI72
aI72
aI72
aI72
aI72
aI72
aI72
aI72
aI72
aI72
aI72
aI72
aI72
aI72
aI72
aI72
aI72
aI72
aI72
aI72
aI72
aI72
aI72
aI72
aI72
aI72
aI72
aI72
aI72
aI72
aI72
aI72
aI72
aI72
aI72
aI72
aI72
aI72
aI72
aI72
aI72
aI72
aI72
aI72
aI72
aI72
aI72
aI72
aI72
aI72
aI72
aI72
aI72
aI72
aa(lp26
I90
aI90
aI90
aI90
aI90
aI90
aI90
aI90
aI90
aI90
aI90
aI90
aI90
aI90
aI90
aI90
aI90
aI90
aI90
aI90
aI90
aI90
aI90
aI90
aI90
aI90
aI90
aI90
aI90
aI90
aI90
aI90
aI90
aI90
aI90
aI90
aI90
aI90
aI90
aI90
aI91
aI92
aI93
aI94
aI95
aI96
aI97
aI97
aI97
aI97
aI97
aI98
aI99
aI100
aI101
aI102
aI103
aI104
aI105
aI106
aI106
aI106
aI106
aI106
aI107
aI108
aI109
aI110
aI111
aI112
aI112
aI112
aI112
aI112
aI113
aI114
aI115
aI116
aI117
aI118
aI119
aI119
aI119
aI119
aI119
aI119
aI120
aI121
aI122
aI123
aI124
aI125
aI126
aI126
aI126
aI126
aI126
aI127
aI128
aI129
aI130
aI131
aI132
aI133
aI133
aI133
aI133
aI134
aI135
aI136
aI137
aI138
aI139
aI140
aI140
aI140
aI140
aI140
aI140
aI140
aI140
aI141
aI142
aI143
aI144
aI144
aI144
aI144
aI144
aI144
aI144
aI144
aI144
aI144
aI144
aI144
aI144
aI144
aI144
aI144
aI144
aI144
aI144
aI144
aI144
aI144
aI144
aI144
aI144
aI144
aI144
aI144
aI144
aI144
aI144
aI144
aI144
aI144
aI144
aI144
aI144
aI144
aI144
aI144
aI144
aI144
aI144
aI144
aI144
aI144
aI144
aI144
aI144
aI144
aI144
aI144
aI144
aI144
aI144
aI144
aI144
aI144
aI144
aI144
aI144
aI144
aI144
aI144
aI144
aI144
aI144
aI144
aI144
aI144
aI144
aI144
aI144
aI144
aI144
aI144
aI144
aI144
aI144
aI144
aI144
aI144
aI144
aI144
aI144
aI144
aI144
aI144
aI144
aI144
aI144
aI144
aI144
aI144
aI144
aI144
aI144
aI144
aI144
aI144
aI144
aI144
aI144
aI144
aI144
aI144
aI144
aI144
aI144
aI144
aI144
aI144
aI144
aI144
aI144
aI144
aI144
aI144
aI144
aI144
aI144
aI144
aI144
aI144
aI144
aI144
aI144
aI144
aI144
aI144
aI144
aI144
aI144
aI144
aI144
aI144
aI144
aI144
aI144
aI144
aI144
aI144
aI144
aI144
aI144
aI144
aI144
aI144
aI144
aI144
aI144
aI144
aI144
aI144
aI144
aI144
aI144
aI144
aI144
aI144
aI144
aI144
aI144
aI144
aI144
aI144
aI144
aI144
aI144
aI144
aI144
aI144
aI144
aI144
aI144
aI144
aI144
aI144
aI144
aa(lp27
I0
aI0
aI0
aI0
aI0
aI0
aI0
aI0
aI0
aI0
aI0
aI0
aI0
aI0
aI0
aI0
aI0
aI0
aI0
aI0
aI0
aI0
aI0
aI0
aI0
aI0
aI0
aI0
aI0
aI0
aI0
aI0
aI0
aI0
aI0
aI0
aI0
aI0
aI0
aI0
aI0
aI0
aI0
aI0
aI0
aI0
aI0
aI0
aI0
aI1
aI2
aI3
aI4
aI5
aI6
aI6
aI6
aI6
aI6
aI6
aI6
aI7
aI8
aI9
aI10
aI11
aI12
aI13
aI13
aI13
aI13
aI13
aI13
aI14
aI15
aI16
aI17
aI18
aI19
aI20
aI20
aI20
aI20
aI20
aI20
aI20
aI20
aI20
aI20
aI20
aI20
aI20
aI20
aI20
aI20
aI20
aI20
aI20
aI20
aI20
aI20
aI20
aI20
aI20
aI20
aI20
aI20
aI20
aI20
aI20
aI20
aI20
aI20
aI20
aI20
aI20
aI20
aI20
aI20
aI20
aI20
aI20
aI20
aI20
aI20
aI20
aI20
aI20
aI20
aI20
aI20
aI20
aI20
aI20
aI20
aI20
aI20
aI20
aI20
aI20
aI20
aI20
aI20
aI20
aI20
aI20
aI20
aI20
aI20
aI20
aI20
aI20
aI20
aI20
aI20
aI20
aI20
aI20
aI20
aI20
aI20
aI20
aI20
aI20
aI20
aI20
aI20
aI20
aI20
aI20
aI20
aI20
aI20
aI20
aI20
aI20
aI20
aI20
aI20
aI20
aI20
aI20
aI20
aI20
aI20
aI20
aI20
aI20
aI20
aI20
aI20
aI20
aI20
aI20
aI20
aI20
aI20
aI20
aI20
aI20
aI20
aI20
aI20
aI20
aI20
aI20
aI20
aI20
aI20
aI20
aI20
aI20
aI20
aI20
aI20
aI20
aI20
aI20
aI20
aI20
aI20
aI20
aI20
aI20
aI20
aI20
aI20
aI20
aI20
aI20
aI20
aI20
aI20
aI20
aI20
aI20
aI20
aI20
aI20
aI20
aI20
aI20
aI20
aI20
aI20
aI20
aI20
aI20
aI20
aI20
aI20
aI20
aI20
aI20
aI20
aI20
aI20
aI20
aI20
aI20
aI20
aI20
aI20
aI20
aI20
aI20
aI20
aI20
aI20
aI20
aI20
aI20
aI20
aI20
aI20
aI20
aI20
aI20
aI20
aI20
aI20
aI20
aI20
aI20
aI20
aI20
aI20
aI20
aI20
aI20
aI20
aI20
aI20
aI20
aI20
aI20
aI20
aI20
aI20
aI20
aI20
aI20
aa(lp28
I90
aI90
aI90
aI90
aI90
aI90
aI90
aI90
aI90
aI90
aI90
aI90
aI90
aI90
aI90
aI90
aI90
aI90
aI90
aI90
aI90
aI90
aI90
aI90
aI90
aI90
aI90
aI90
aI90
aI90
aI90
aI90
aI90
aI90
aI90
aI90
aI90
aI90
aI90
aI90
aI90
aI90
aI90
aI90
aI91
aI92
aI93
aI94
aI95
aI96
aI97
aI97
aI97
aI97
aI97
aI98
aI99
aI100
aI101
aI102
aI103
aI104
aI105
aI106
aI107
aI107
aI107
aI107
aI107
aI108
aI109
aI110
aI111
aI112
aI113
aI114
aI115
aI115
aI115
aI115
aI115
aI116
aI117
aI118
aI119
aI120
aI121
aI122
aI122
aI122
aI122
aI122
aI122
aI123
aI124
aI125
aI126
aI127
aI128
aI128
aI128
aI128
aI128
aI128
aI129
aI130
aI131
aI132
aI133
aI134
aI134
aI134
aI134
aI134
aI134
aI135
aI136
aI137
aI138
aI139
aI140
aI140
aI140
aI140
aI140
aI141
aI142
aI143
aI144
aI145
aI146
aI147
aI147
aI147
aI147
aI147
aI148
aI149
aI150
aI151
aI152
aI153
aI154
aI154
aI154
aI154
aI154
aI154
aI154
aI154
aI154
aI154
aI155
aI156
aI157
aI158
aI159
aI159
aI159
aI159
aI159
aI159
aI159
aI159
aI159
aI159
aI159
aI159
aI159
aI159
aI159
aI159
aI159
aI159
aI159
aI159
aI159
aI159
aI159
aI159
aI159
aI159
aI159
aI159
aI159
aI159
aI159
aI159
aI159
aI159
aI159
aI159
aI159
aI159
aI159
aI159
aI159
aI159
aI159
aI159
aI159
aI159
aI159
aI159
aI159
aI159
aI159
aI159
aI159
aI159
aI159
aI159
aI159
aI159
aI159
aI159
aI159
aI159
aI159
aI159
aI159
aI159
aI159
aI159
aI159
aI159
aI159
aI159
aI159
aI159
aI159
aI159
aI159
aI159
aI159
aI159
aI159
aI159
aI159
aI159
aI159
aI159
aI159
aI159
aI159
aI159
aI159
aI159
aI159
aI159
aI159
aI159
aI159
aI159
aI159
aI159
aI159
aI159
aI159
aI160
aI161
aI162
aI163
aI164
aI164
aI164
aI164
aI164
aI164
aI164
aI164
aI164
aI164
aI164
aI164
aI164
aI164
aI164
aI164
aI164
aI164
aI164
aI164
aI164
aI164
aI164
aI164
aI164
aI164
aI164
aI164
aI164
aI164
aI164
aI164
aI164
aI164
aI164
aI164
aI164
aI164
aI164
aI164
aa.