(lp0
(lp1
I0
aI0
aI0
aI0
aI0
aI0
aI0
aI0
aI0
aI0
aI0
aI0
aI0
aI0
aI0
aI0
aI0
aI0
aI0
aI0
aI0
aI0
aI0
aI0
aI0
aI0
aI0
aI0
aI0
aI0
aI0
aI0
aI0
aI0
aI0
aI0
aI0
aI0
aI0
aI0
aI0
aI0
aI0
aI0
aI0
aI359
aI358
aI357
aI356
aI355
aI354
aI353
aI352
aI351
aI350
aI349
aI348
aI347
aI346
aI345
aI344
aI343
aI342
aI341
aI340
aI339
aI339
aI339
aI339
aI339
aI340
aI341
aI342
aI343
aI344
aI345
aI346
aI347
aI348
aI349
aI350
aI351
aI352
aI353
aI354
aI355
aI356
aI357
aI358
aI359
aI360
aI1
aI2
aI3
aI4
aI5
aI6
aI7
aI8
aI9
aI10
aI11
aI12
aI13
aI14
aI15
aI16
aI17
aI18
aI19
aI20
aI21
aI22
aI23
aI24
aI25
aI26
aI27
aI28
aI29
aI30
aI31
aI32
aI33
aI34
aI35
aI36
aI37
aI38
aI39
aI40
aI40
aI40
aI40
aI40
aI40
aI40
aI40
aI40
aI40
aI40
aI40
aI40
aI40
aI40
aI40
aI40
aI40
aI40
aI40
aI40
aI40
aI40
aI40
aI40
aI40
aI40
aI40
aI40
aI40
aI40
aI40
aI40
aI40
aI40
aI40
aI40
aI40
aI40
aI40
aI40
aI40
aI40
aI40
aI41
aI42
aI43
aI44
aI45
aI46
aI47
aI48
aI49
aI50
aI50
aI50
aI50
aI50
aI50
aI50
aI50
aI50
aI50
aI50
aI50
aI50
aI50
aI50
aI50
aI50
aI50
aI50
aI50
aI50
aI50
aI50
aI50
aI50
aI50
aI50
aI50
aI50
aI50
aI50
aI50
aI50
aI50
aI50
aI50
aI50
aI50
aI50
aI50
aI50
aI50
aI50
aI50
aI50
aI50
aI50
aI50
aI50
aI50
aI50
aI50
aI50
aI50
aI50
aI50
aI50
aI50
aI50
aI50
aI50
aI50
aI50
aI50
aI50
aI50
aI50
aI50
aI50
aI50
aI50
aI50
aI50
aI50
aI50
aI50
aI50
aI50
aI50
aI50
aI50
aI50
aI50
aI50
aI50
aI50
aI50
aI50
aI50
aI50
aI50
aI50
aI50
aI50
aI50
aI50
aI50
aI50
aI50
aI50
aI50
aI50
aI50
aI50
aI50
aI50
aI50
aI50
aI50
aI50
aI50
aI50
aI50
aI50
aI50
aI50
aI50
aI50
aI50
aI50
aa(lp2
I90
aI90
aI90
aI90
aI90
aI90
aI90
aI90
aI90
aI90
aI90
aI90
aI90
aI90
aI90
aI90
aI90
aI90
aI90
aI90
aI90
aI90
aI90
aI90
aI90
aI90
aI90
aI90
aI90
aI90
aI90
aI90
aI90
aI90
aI90
aI90
aI90
aI90
aI90
aI90
aI90
aI90
aI90
aI90
aI90
aI90
aI90
aI90
aI90
aI90
aI90
aI90
aI90
aI90
aI90
aI89
aI88
aI87
aI86
aI85
aI84
aI83
aI82
aI81
aI80
aI79
aI78
aI77
aI76
aI75
aI74
aI73
aI72
aI71
aI70
aI69
aI68
aI67
aI66
aI65
aI64
aI63
aI62
aI61
aI60
aI59
aI58
aI57
aI56
aI55
aI54
aI53
aI52
aI51
aI50
aI49
aI48
aI47
aI46
aI45
aI44
aI43
aI42
aI41
aI40
aI39
aI38
aI37
aI36
aI35
aI34
aI33
aI32
aI31
aI30
aI29
aI28
aI27
aI26
aI26
aI26
aI26
aI26
aI26
aI26
aI26
aI26
aI26
aI26
aI26
aI26
aI26
aI26
aI26
aI27
aI28
aI29
aI30
aI31
aI32
aI33
aI34
aI35
aI36
aI37
aI37
aI37
aI37
aI37
aI37
aI37
aI37
aI37
aI37
aI37
aI37
aI37
aI37
aI37
aI37
aI37
aI37
aI37
aI36
aI35
aI34
aI33
aI33
aI33
aI33
aI33
aI33
aI33
aI33
aI33
aI33
aI32
aI31
aI30
aI29
aI28
aI28
aI28
aI28
aI28
aI28
aI28
aI28
aI28
aI28
aI28
aI28
aI28
aI28
aI28
aI28
aI28
aI28
aI28
aI28
aI28
aI28
aI28
aI28
aI28
aI28
aI28
aI28
aI28
aI28
aI28
aI28
aI28
aI28
aI28
aI28
aI28
aI28
aI28
aI28
aI28
aI28
aI28
aI28
aI28
aI28
aI28
aI28
aI28
aI28
aI28
aI28
aI28
aI28
aI28
aI28
aI28
aI28
aI28
aI28
aI28
aI28
aI28
aI28
aI28
aI28
aI28
aI28
aI28
aI28
aI28
aI28
aI28
aI28
aI28
aI28
aI28
aI28
aI28
aI28
aI28
aI28
aI28
aI28
aI28
aI28
aI28
aI28
aI28
aI28
aI28
aI28
aI28
aI28
aI28
aI28
aI28
aI28
aI28
aI28
aI28
aI28
aI28
aI28
aI28
aI28
aI28
aI28
aI28
aI28
aI28
aI28
aI28
aI28
aI28
aI28
aI28
aI28
aI28
aI28
aI28
aI28
aI28
aa(lp3
I270
aI270
aI270
aI270
aI270
aI270
aI270
aI270
aI270
aI270
aI270
aI270
aI270
aI270
aI270
aI270
aI270
aI270
aI270
aI270
aI270
aI270
aI270
aI270
aI270
aI270
aI270
aI270
aI270
aI270
aI270
aI270
aI270
aI270
aI270
aI270
aI270
aI270
aI270
aI270
aI271
aI272
aI273
aI274
aI275
aI276
aI277
aI278
aI279
aI280
aI281
aI282
aI283
aI284
aI285
aI285
aI285
aI285
aI285
aI285
aI285
aI285
aI285
aI285
aI285
aI285
aI285
aI284
aI283
aI282
aI281
aI280
aI279
aI278
aI277
aI276
aI275
aI274
aI273
aI272
aI271
aI270
aI269
aI268
aI267
aI266
aI265
aI264
aI263
aI263
aI263
aI263
aI263
aI263
aI263
aI263
aI263
aI262
aI261
aI260
aI259
aI258
aI257
aI256
aI255
aI254
aI254
aI254
aI254
aI254
aI254
aI253
aI252
aI251
aI250
aI249
aI248
aI247
aI247
aI247
aI247
aI247
aI247
aI247
aI247
aI247
aI247
aI247
aI247
aI247
aI247
aI247
aI247
aI247
aI247
aI247
aI247
aI247
aI247
aI247
aI247
aI247
aI247
aI247
aI247
aI247
aI247
aI247
aI247
aI247
aI247
aI247
aI247
aI247
aI247
aI247
aI247
aI247
aI247
aI247
aI247
aI247
aI247
aI247
aI247
aI247
aI247
aI247
aI247
aI247
aI247
aI247
aI247
aI247
aI247
aI247
aI247
aI247
aI247
aI247
aI247
aI247
aI247
aI247
aI247
aI247
aI247
aI247
aI247
aI247
aI247
aI247
aI247
aI247
aI247
aI247
aI247
aI247
aI247
aI247
aI247
aI247
aI247
aI247
aI247
aI247
aI247
aI247
aI247
aI247
aI247
aI247
aI247
aI247
aI247
aI247
aI247
aI247
aI247
aI247
aI247
aI247
aI247
aI247
aI247
aI247
aI247
aI247
aI247
aI247
aI247
aI247
aI247
aI247
aI247
aI247
aI247
aI247
aI247
aI247
aI247
aI247
aI247
aI247
aI247
aI247
aI247
aI247
aI247
aI247
aI247
aI247
aI247
aI247
aI247
aI247
aI247
aI247
aI247
aI247
aI247
aI247
aI247
aI247
aI247
aI247
aI247
aI247
aI247
aI247
aI247
aI247
aI247
aI247
aI247
aI247
aI247
aI247
aI247
aI247
aI247
aI247
aI247
aI247
aI247
aI247
aI247
aI247
aI247
aI247
aI247
aI247
aI247
aI247
aI247
aI247
aI247
aI247
aI247
aI247
aI247
aI247
aI247
aa(lp4
I270
aI270
aI270
aI270
aI270
aI270
aI270
aI270
aI270
aI270
aI270
aI270
aI270
aI270
aI270
aI270
aI270
aI270
aI270
aI270
aI270
aI270
aI270
aI270
aI270
aI270
aI270
aI270
aI270
aI270
aI270
aI270
aI270
aI270
aI270
aI270
aI270
aI270
aI270
aI270
aI270
aI270
aI270
aI270
aI270
aI270
aI270
aI270
aI270
aI270
aI270
aI270
aI270
aI270
aI271
aI272
aI273
aI274
aI275
aI276
aI277
aI278
aI279
aI280
aI281
aI282
aI283
aI284
aI285
aI286
aI287
aI288
aI289
aI290
aI291
aI292
aI293
aI294
aI294
aI294
aI294
aI294
aI294
aI294
aI294
aI294
aI294
aI293
aI292
aI291
aI290
aI289
aI288
aI287
aI286
aI285
aI284
aI283
aI282
aI281
aI280
aI279
aI278
aI277
aI276
aI275
aI274
aI273
aI272
aI271
aI270
aI269
aI268
aI267
aI266
aI265
aI264
aI263
aI262
aI261
aI261
aI261
aI261
aI261
aI261
aI261
aI261
aI261
aI261
aI261
aI261
aI261
aI261
aI261
aI261
aI261
aI261
aI261
aI261
aI261
aI261
aI261
aI261
aI260
aI259
aI258
aI257
aI256
aI255
aI254
aI254
aI254
aI254
aI254
aI254
aI254
aI254
aI254
aI254
aI254
aI254
aI254
aI254
aI254
aI254
aI254
aI254
aI254
aI254
aI254
aI254
aI254
aI254
aI254
aI254
aI254
aI254
aI254
aI254
aI254
aI254
aI254
aI254
aI254
aI254
aI254
aI254
aI254
aI254
aI254
aI254
aI254
aI254
aI254
aI254
aI254
aI254
aI254
aI254
aI254
aI254
aI254
aI254
aI254
aI254
aI254
aI254
aI254
aI254
aI254
aI254
aI254
aI254
aI254
aI254
aI254
aI254
aI254
aI254
aI254
aI254
aI254
aI254
aI254
aI254
aI254
aI254
aI254
aI254
aI254
aI254
aI254
aI254
aI254
aI254
aI254
aI254
aI254
aI254
aI254
aI254
aI254
aI254
aI254
aI254
aI254
aI254
aI254
aI254
aI254
aI254
aI254
aI254
aI254
aI254
aI254
aI254
aI254
aI254
aI254
aI254
aI254
aI254
aI254
aI254
aI254
aI254
aI254
aI254
aI254
aI254
aI254
aI254
aI254
aI254
aI254
aI254
aI254
aI254
aI254
aI254
aI254
aI254
aI254
aI254
aI254
aI254
aI254
aI254
aI254
aI254
aI254
aI254
aI254
aI254
aI254
aI254
aI254
aI254
aI254
aI254
aI254
aI254
aa(lp5
I180
aI180
aI180
aI180
aI180
aI180
aI180
aI180
aI180
aI180
aI180
aI180
aI180
aI180
aI180
aI180
aI180
aI180
aI180
aI180
aI180
aI180
aI180
aI180
aI180
aI180
aI180
aI180
aI180
aI180
aI180
aI180
aI180
aI180
aI180
aI180
aI180
aI180
aI180
aI180
aI180
aI180
aI180
aI180
aI180
aI180
aI180
aI180
aI180
aI180
aI180
aI180
aI180
aI180
aI180
aI180
aI180
aI180
aI180
aI180
aI180
aI180
aI180
aI180
aI180
aI180
aI180
aI180
aI180
aI180
aI180
aI180
aI180
aI180
aI180
aI180
aI180
aI180
aI180
aI180
aI180
aI180
aI180
aI180
aI180
aI180
aI180
aI180
aI180
aI180
aI180
aI180
aI180
aI180
aI180
aI180
aI180
aI180
aI180
aI180
aI180
aI180
aI180
aI180
aI180
aI180
aI180
aI180
aI180
aI180
aI180
aI180
aI180
aI180
aI180
aI180
aI180
aI180
aI180
aI180
aI180
aI180
aI180
aI180
aI180
aI180
aI180
aI180
aI180
aI180
aI180
aI180
aI180
aI180
aI180
aI180
aI180
aI180
aI180
aI180
aI180
aI180
aI180
aI180
aI180
aI180
aI180
aI180
aI180
aI180
aI180
aI180
aI180
aI180
aI180
aI180
aI180
aI180
aI180
aI180
aI180
aI180
aI180
aI180
aI180
aI180
aI180
aI180
aI180
aI180
aI180
aI180
aI180
aI180
aI180
aI180
aI180
aI180
aI180
aI180
aI180
aI180
aI180
aI180
aI180
aI180
aI180
aI180
aI180
aI180
aI180
aI180
aI180
aI180
aI180
aI180
aI180
aI180
aI180
aI180
aI180
aI180
aI180
aI180
aI180
aI180
aI180
aI180
aI180
aI180
aI180
aI180
aI180
aI180
aI180
aI180
aI180
aI180
aI180
aI180
aI180
aI180
aI180
aI180
aI180
aI180
aI180
aI180
aI180
aI180
aI180
aI180
aI180
aI180
aI180
aI180
aI180
aI180
aI180
aI180
aI180
aI180
aI180
aI180
aI180
aI180
aI180
aI180
aI180
aI180
aI180
aI180
aI180
aI180
aI180
aI180
aI180
aI180
aI180
aI180
aI180
aI180
aI180
aI180
aI180
aI180
aI180
aI180
aI180
aI180
aI180
aI180
aI180
aI180
aI180
aI180
aI180
aI180
aI180
aI180
aI180
aI180
aI180
aI180
aI180
aI180
aI180
aI180
aI180
aI180
aI180
aI180
aI180
aI180
aI180
aI180
aI180
aI180
aI180
aI180
aI180
aI180
aI180
aa(lp6
I270
aI270
aI270
aI270
aI270
aI270
aI270
aI270
aI270
aI270
aI270
aI270
aI270
aI270
aI270
aI270
aI270
aI270
aI270
aI270
aI270
aI270
aI270
aI270
aI270
aI270
aI270
aI270
aI270
aI270
aI270
aI270
aI270
aI270
aI270
aI270
aI270
aI270
aI270
aI270
aI270
aI270
aI270
aI270
aI270
aI270
aI270
aI271
aI272
aI273
aI274
aI275
aI276
aI277
aI278
aI279
aI280
aI281
aI282
aI283
aI284
aI285
aI286
aI287
aI288
aI289
aI290
aI291
aI292
aI293
aI294
aI295
aI296
aI297
aI298
aI299
aI300
aI301
aI302
aI303
aI304
aI305
aI305
aI305
aI305
aI305
aI305
aI305
aI305
aI305
aI305
aI305
aI305
aI305
aI305
aI305
aI305
aI305
aI305
aI305
aI305
aI305
aI305
aI305
aI305
aI305
aI305
aI305
aI305
aI305
aI305
aI305
aI305
aI305
aI305
aI305
aI305
aI305
aI305
aI305
aI305
aI305
aI305
aI305
aI305
aI305
aI305
aI305
aI305
aI305
aI305
aI305
aI305
aI305
aI305
aI305
aI305
aI305
aI305
aI305
aI305
aI305
aI305
aI305
aI305
aI305
aI305
aI305
aI305
aI305
aI305
aI305
aI305
aI305
aI305
aI305
aI305
aI305
aI305
aI305
aI305
aI305
aI305
aI305
aI305
aI305
aI305
aI305
aI305
aI305
aI305
aI305
aI305
aI305
aI305
aI305
aI305
aI305
aI305
aI305
aI305
aI305
aI305
aI305
aI305
aI305
aI305
aI305
aI305
aI305
aI305
aI305
aI305
aI305
aI305
aI305
aI305
aI305
aI305
aI305
aI305
aI305
aI305
aI305
aI305
aI305
aI305
aI305
aI305
aI305
aI305
aI305
aI305
aI305
aI305
aI305
aI306
aI307
aI308
aI309
aI310
aI311
aI312
aI313
aI314
aI314
aI314
aI314
aI314
aI314
aI314
aI314
aI314
aI314
aI314
aI314
aI314
aI314
aI314
aI314
aI314
aI314
aI314
aI314
aI314
aI314
aI314
aI314
aI314
aI314
aI314
aI314
aI314
aI314
aI314
aI314
aI314
aI314
aI314
aI314
aI314
aI314
aI314
aI314
aI314
aI314
aI314
aI314
aI314
aI314
aI314
aI314
aI314
aI314
aI314
aI314
aI314
aI314
aI314
aI314
aI314
aI314
aI314
aI314
aI314
aI314
aI314
aI314
aI314
aI314
aI314
aI314
aI314
aI314
aI314
aI314
aI314
aI314
aI314
aI314
aI314
aI314
aI314
aa(lp7
I90
aI90
aI90
aI90
aI90
aI90
aI90
aI90
aI90
aI90
aI90
aI90
aI90
aI90
aI90
aI90
aI90
aI90
aI90
aI90
aI90
aI90
aI90
aI90
aI90
aI90
aI90
aI90
aI90
aI90
aI90
aI90
aI90
aI90
aI90
aI90
aI90
aI90
aI90
aI90
aI90
aI90
aI90
aI90
aI90
aI91
aI92
aI93
aI94
aI95
aI96
aI97
aI98
aI99
aI100
aI101
aI102
aI103
aI104
aI105
aI106
aI107
aI108
aI109
aI110
aI111
aI112
aI113
aI114
aI115
aI116
aI117
aI118
aI119
aI120
aI121
aI122
aI123
aI124
aI125
aI126
aI127
aI128
aI129
aI130
aI131
aI132
aI133
aI134
aI135
aI136
aI137
aI138
aI139
aI140
aI140
aI140
aI140
aI140
aI140
aI140
aI140
aI140
aI140
aI140
aI140
aI140
aI140
aI140
aI140
aI140
aI140
aI140
aI140
aI141
aI142
aI143
aI144
aI145
aI146
aI147
aI148
aI149
aI150
aI150
aI150
aI150
aI150
aI150
aI150
aI150
aI150
aI150
aI150
aI150
aI150
aI150
aI151
aI152
aI153
aI154
aI155
aI156
aI157
aI158
aI159
aI160
aI161
aI161
aI161
aI161
aI161
aI161
aI161
aI161
aI162
aI163
aI164
aI165
aI166
aI167
aI168
aI169
aI169
aI169
aI169
aI169
aI169
aI169
aI169
aI169
aI169
aI169
aI169
aI169
aI169
aI169
aI169
aI169
aI169
aI169
aI169
aI169
aI169
aI169
aI169
aI169
aI169
aI169
aI169
aI169
aI169
aI169
aI169
aI169
aI169
aI169
aI169
aI169
aI169
aI169
aI169
aI169
aI169
aI169
aI169
aI169
aI169
aI169
aI169
aI169
aI169
aI169
aI169
aI169
aI169
aI169
aI169
aI169
aI169
aI169
aI169
aI169
aI169
aI169
aI169
aI169
aI168
aI167
aI166
aI165
aI164
aI164
aI164
aI164
aI164
aI164
aI164
aI164
aI164
aI164
aI164
aI164
aI164
aI164
aI164
aI164
aI164
aI164
aI164
aI164
aI164
aI164
aI164
aI164
aI164
aI164
aI164
aI164
aI164
aI164
aI164
aI164
aI164
aI164
aI164
aI163
aI162
aI161
aI160
aI160
aI160
aI160
aI160
aI160
aI160
aI160
aI160
aI160
aI160
aI160
aI160
aI160
aI160
aI160
aI160
aI160
aI160
aI160
aI160
aI160
aI160
aI160
aI160
aI160
aI160
aI160
aI160
aI160
aI160
aI160
aI160
aI160
aa(lp8
I0
aI0
aI0
aI0
aI0
aI0
aI0
aI0
aI0
aI0
aI0
aI0
aI0
aI0
aI0
aI0
aI0
aI0
aI0
aI0
aI0
aI0
aI0
aI0
aI0
aI0
aI0
aI0
aI0
aI0
aI0
aI0
aI0
aI0
aI0
aI0
aI0
aI0
aI0
aI0
aI0
aI0
aI0
aI0
aI0
aI0
aI0
aI0
aI0
aI0
aI0
aI0
aI0
aI0
aI0
aI0
aI0
aI0
aI0
aI0
aI0
aI0
aI0
aI0
aI0
aI0
aI1
aI2
aI3
aI4
aI5
aI6
aI7
aI8
aI9
aI10
aI11
aI11
aI11
aI11
aI11
aI11
aI11
aI11
aI11
aI11
aI11
aI11
aI11
aI11
aI11
aI11
aI11
aI11
aI11
aI11
aI11
aI11
aI11
aI11
aI11
aI11
aI11
aI11
aI11
aI11
aI11
aI11
aI11
aI11
aI11
aI11
aI11
aI11
aI11
aI11
aI11
aI11
aI11
aI11
aI11
aI11
aI11
aI11
aI11
aI10
aI9
aI8
aI7
aI6
aI5
aI4
aI3
aI2
aI1
aI0
aI359
aI358
aI357
aI356
aI355
aI354
aI354
aI354
aI354
aI354
aI354
aI354
aI354
aI354
aI354
aI354
aI354
aI354
aI354
aI354
aI354
aI354
aI354
aI354
aI354
aI354
aI353
aI352
aI351
aI350
aI349
aI348
aI347
aI346
aI345
aI344
aI344
aI344
aI344
aI344
aI344
aI343
aI342
aI341
aI340
aI339
aI338
aI337
aI336
aI335
aI335
aI335
aI335
aI335
aI335
aI335
aI335
aI335
aI335
aI335
aI335
aI335
aI335
aI335
aI335
aI335
aI335
aI335
aI335
aI335
aI335
aI335
aI335
aI335
aI335
aI335
aI335
aI335
aI335
aI335
aI335
aI335
aI335
aI335
aI335
aI335
aI335
aI335
aI335
aI335
aI335
aI335
aI335
aI335
aI335
aI335
aI335
aI335
aI335
aI335
aI335
aI335
aI335
aI335
aI335
aI335
aI335
aI335
aI335
aI335
aI335
aI335
aI335
aI335
aI335
aI335
aI335
aI335
aI335
aI335
aI335
aI335
aI335
aI335
aI335
aI335
aI335
aI335
aI335
aI335
aI335
aI335
aI335
aI335
aI335
aI335
aI335
aI335
aI335
aI335
aI335
aI335
aI335
aI335
aI335
aI335
aI335
aI335
aI335
aI335
aI335
aI335
aI335
aI335
aI335
aI335
aI335
aI335
aI335
aI335
aI335
aI335
aI335
aI335
aI336
aI337
aI338
aa(lp9
I180
aI180
aI180
aI180
aI180
aI180
aI180
aI180
aI180
aI180
aI180
aI180
aI180
aI180
aI180
aI180
aI180
aI180
aI180
aI180
aI180
aI180
aI180
aI180
aI180
aI180
aI180
aI180
aI180
aI180
aI180
aI180
aI180
aI180
aI180
aI180
aI180
aI180
aI180
aI180
aI181
aI182
aI183
aI184
aI185
aI186
aI187
aI188
aI189
aI190
aI191
aI192
aI193
aI194
aI195
aI196
aI197
aI198
aI199
aI200
aI201
aI202
aI203
aI204
aI205
aI206
aI207
aI208
aI209
aI210
aI211
aI212
aI213
aI214
aI214
aI214
aI214
aI214
aI214
aI214
aI214
aI214
aI214
aI214
aI214
aI214
aI214
aI214
aI214
aI214
aI214
aI214
aI214
aI214
aI214
aI214
aI214
aI214
aI214
aI214
aI214
aI214
aI214
aI214
aI214
aI214
aI214
aI214
aI214
aI214
aI214
aI214
aI214
aI214
aI214
aI214
aI214
aI214
aI214
aI214
aI214
aI214
aI214
aI214
aI214
aI214
aI214
aI214
aI214
aI214
aI214
aI214
aI214
aI214
aI214
aI214
aI214
aI214
aI214
aI214
aI214
aI214
aI214
aI214
aI214
aI214
aI214
aI214
aI214
aI214
aI214
aI214
aI214
aI214
aI214
aI214
aI214
aI214
aI214
aI214
aI214
aI214
aI214
aI214
aI214
aI214
aI214
aI214
aI214
aI214
aI214
aI214
aI214
aI214
aI214
aI214
aI214
aI214
aI214
aI214
aI214
aI214
aI214
aI214
aI214
aI214
aI214
aI214
aI214
aI214
aI214
aI214
aI214
aI214
aI214
aI214
aI214
aI214
aI214
aI214
aI214
aI214
aI214
aI214
aI214
aI214
aI214
aI214
aI214
aI214
aI214
aI214
aI214
aI214
aI214
aI214
aI214
aI214
aI214
aI214
aI214
aI214
aI214
aI214
aI214
aI214
aI214
aI214
aI214
aI214
aI214
aI214
aI214
aI214
aI214
aI214
aI214
aI214
aI214
aI214
aI214
aI214
aI214
aI214
aI214
aI214
aI214
aI214
aI214
aI214
aI214
aI214
aI214
aI214
aI214
aI214
aI214
aI214
aI214
aI214
aI214
aI214
aI214
aI214
aI214
aI214
aI214
aI214
aI214
aI214
aI214
aI214
aI214
aI214
aI214
aI214
aI214
aI214
aI214
aI214
aI214
aI214
aI214
aI214
aI214
aI214
aI214
aI214
aI214
aI214
aI214
aI214
aI214
aI214
aI214
aI214
aI214
aI214
aI214
aI214
aI214
aI214
aa(lp10
I0
aI0
aI0
aI0
aI0
aI0
aI0
aI0
aI0
aI0
aI0
aI0
aI0
aI0
aI0
aI0
aI0
aI0
aI0
aI0
aI0
aI0
aI0
aI0
aI0
aI0
aI0
aI0
aI0
aI0
aI0
aI0
aI0
aI0
aI0
aI0
aI0
aI0
aI0
aI0
aI0
aI0
aI0
aI0
aI0
aI0
aI0
aI0
aI359
aI358
aI357
aI356
aI355
aI354
aI353
aI352
aI351
aI350
aI349
aI348
aI347
aI346
aI345
aI344
aI343
aI342
aI341
aI340
aI339
aI338
aI337
aI336
aI335
aI334
aI333
aI332
aI331
aI330
aI329
aI328
aI327
aI326
aI325
aI324
aI323
aI322
aI321
aI320
aI319
aI318
aI317
aI316
aI315
aI314
aI314
aI314
aI314
aI314
aI314
aI314
aI314
aI314
aI314
aI314
aI314
aI314
aI314
aI314
aI313
aI312
aI311
aI310
aI309
aI308
aI307
aI306
aI305
aI305
aI305
aI305
aI305
aI305
aI305
aI305
aI305
aI305
aI305
aI305
aI305
aI305
aI305
aI305
aI305
aI305
aI305
aI305
aI305
aI305
aI305
aI305
aI305
aI305
aI305
aI305
aI305
aI305
aI305
aI305
aI305
aI304
aI303
aI302
aI301
aI300
aI299
aI298
aI297
aI296
aI296
aI296
aI296
aI296
aI296
aI296
aI296
aI296
aI296
aI296
aI296
aI296
aI296
aI296
aI296
aI296
aI296
aI296
aI296
aI296
aI296
aI296
aI296
aI296
aI296
aI296
aI296
aI296
aI296
aI296
aI296
aI296
aI296
aI296
aI296
aI296
aI296
aI296
aI296
aI296
aI296
aI296
aI296
aI296
aI296
aI296
aI296
aI296
aI296
aI296
aI296
aI296
aI296
aI296
aI296
aI296
aI296
aI296
aI296
aI296
aI296
aI296
aI296
aI296
aI296
aI296
aI296
aI296
aI296
aI296
aI296
aI296
aI297
aI298
aI299
aI300
aI301
aI302
aI303
aI304
aI305
aI306
aI307
aI308
aI309
aI309
aI309
aI309
aI309
aI309
aI309
aI309
aI309
aI309
aI309
aI309
aI309
aI309
aI309
aI309
aI309
aI309
aI309
aI309
aI309
aI309
aI309
aI309
aI309
aI309
aI309
aI309
aI309
aI309
aI309
aI309
aI309
aI309
aI309
aI309
aI309
aI309
aI309
aI309
aI309
aI308
aI307
aI306
aI305
aI305
aI305
aI305
aI305
aI305
aI305
aI305
aI305
aI305
aI305
aI305
aI305
aI305
aI305
aI305
aI305
aa(lp11
I90
aI90
aI90
aI90
aI90
aI90
aI90
aI90
aI90
aI90
aI90
aI90
aI90
aI90
aI90
aI90
aI90
aI90
aI90
aI90
aI90
aI90
aI90
aI90
aI90
aI90
aI90
aI90
aI90
aI90
aI90
aI90
aI90
aI90
aI90
aI90
aI90
aI90
aI91
aI92
aI93
aI94
aI95
aI96
aI97
aI98
aI99
aI100
aI101
aI102
aI103
aI104
aI104
aI104
aI104
aI104
aI104
aI104
aI104
aI104
aI104
aI104
aI104
aI104
aI104
aI104
aI104
aI104
aI104
aI104
aI104
aI104
aI104
aI104
aI104
aI104
aI104
aI104
aI104
aI104
aI104
aI104
aI104
aI104
aI104
aI104
aI104
aI104
aI104
aI104
aI104
aI104
aI104
aI104
aI104
aI104
aI104
aI104
aI104
aI104
aI104
aI104
aI104
aI104
aI104
aI104
aI104
aI104
aI104
aI104
aI104
aI104
aI104
aI104
aI104
aI104
aI104
aI104
aI104
aI104
aI104
aI104
aI104
aI104
aI104
aI104
aI104
aI104
aI104
aI104
aI104
aI104
aI104
aI104
aI104
aI104
aI104
aI104
aI104
aI104
aI104
aI104
aI104
aI104
aI104
aI104
aI104
aI104
aI104
aI104
aI104
aI104
aI104
aI104
aI104
aI104
aI104
aI104
aI104
aI104
aI104
aI104
aI104
aI104
aI104
aI104
aI104
aI104
aI104
aI104
aI104
aI104
aI104
aI104
aI104
aI104
aI104
aI104
aI104
aI104
aI104
aI104
aI104
aI105
aI106
aI107
aI108
aI109
aI110
aI110
aI110
aI110
aI110
aI110
aI110
aI110
aI110
aI110
aI110
aI110
aI110
aI110
aI110
aI110
aI110
aI110
aI110
aI110
aI110
aI110
aI110
aI110
aI110
aI110
aI110
aI110
aI110
aI110
aI110
aI110
aI110
aI110
aI110
aI110
aI110
aI110
aI110
aI110
aI110
aI110
aI110
aI110
aI110
aI110
aI110
aI110
aI110
aI110
aI110
aI110
aI110
aI110
aI110
aI110
aI110
aI110
aI110
aI110
aI110
aI110
aI110
aI110
aI110
aI110
aI110
aI110
aI110
aI110
aI110
aI110
aI110
aI110
aI110
aI110
aI110
aI110
aI110
aI110
aI110
aI110
aI110
aI110
aI110
aI110
aI110
aI110
aI110
aI110
aI110
aI110
aI110
aI110
aI110
aI110
aI110
aI110
aI110
aI110
aI110
aI110
aI110
aI110
aI110
aI110
aI110
aI110
aI110
aI110
aI110
aI110
aI110
aI110
aI110
aa(lp12
I270
aI270
aI270
aI270
aI270
aI270
aI270
aI270
aI270
aI270
aI270
aI270
aI270
aI270
aI270
aI270
aI270
aI270
aI270
aI270
aI270
aI270
aI270
aI270
aI270
aI270
aI270
aI270
aI270
aI270
aI270
aI270
aI270
aI270
aI270
aI270
aI270
aI270
aI270
aI270
aI270
aI270
aI270
aI270
aI270
aI269
aI268
aI267
aI266
aI265
aI264
aI263
aI262
aI261
aI260
aI259
aI258
aI257
aI257
aI257
aI257
aI257
aI257
aI257
aI257
aI257
aI257
aI257
aI258
aI259
aI260
aI261
aI262
aI263
aI264
aI265
aI266
aI267
aI268
aI269
aI270
aI271
aI272
aI273
aI274
aI275
aI276
aI277
aI278
aI279
aI280
aI281
aI282
aI283
aI284
aI285
aI286
aI287
aI288
aI289
aI290
aI291
aI291
aI291
aI291
aI291
aI291
aI291
aI291
aI291
aI291
aI291
aI291
aI291
aI291
aI291
aI291
aI291
aI291
aI291
aI291
aI291
aI291
aI291
aI291
aI291
aI291
aI291
aI291
aI291
aI291
aI291
aI291
aI291
aI291
aI291
aI291
aI291
aI291
aI291
aI291
aI291
aI291
aI291
aI291
aI291
aI291
aI291
aI291
aI291
aI291
aI291
aI291
aI291
aI291
aI291
aI291
aI291
aI291
aI291
aI291
aI291
aI291
aI291
aI291
aI291
aI291
aI291
aI291
aI291
aI291
aI291
aI291
aI291
aI291
aI291
aI291
aI291
aI291
aI291
aI291
aI291
aI291
aI291
aI291
aI291
aI290
aI289
aI288
aI287
aI286
aI286
aI286
aI286
aI286
aI286
aI286
aI286
aI286
aI286
aI286
aI286
aI286
aI286
aI286
aI286
aI286
aI286
aI286
aI286
aI286
aI286
aI286
aI286
aI286
aI286
aI286
aI286
aI286
aI286
aI286
aI286
aI286
aI286
aI286
aI286
aI286
aI286
aI286
aI286
aI286
aI286
aI286
aI286
aI286
aI286
aI286
aI286
aI286
aI286
aI286
aI286
aI286
aI286
aI286
aI286
aI286
aI286
aI286
aI286
aI286
aI286
aI286
aI286
aI286
aI286
aI286
aI286
aI286
aI286
aI286
aI286
aI286
aI286
aI286
aI286
aI286
aI286
aI286
aI286
aI286
aI286
aI286
aI286
aI286
aI286
aI286
aI286
aI286
aI286
aI286
aI286
aI286
aI286
aI286
aI286
aI286
aI286
aI286
aI286
aI286
aI286
aI286
aI286
aI286
aI286
aI286
aI286
aI286
aI286
aI286
aI286
aI286
aa(lp13
I270
aI270
aI270
aI270
aI270
aI270
aI270
aI270
aI270
aI270
aI270
aI270
aI270
aI270
aI270
aI270
aI270
aI270
aI270
aI270
aI270
aI270
aI270
aI270
aI270
aI270
aI270
aI270
aI270
aI270
aI270
aI270
aI270
aI270
aI270
aI270
aI271
aI272
aI273
aI274
aI275
aI276
aI277
aI278
aI279
aI280
aI281
aI282
aI283
aI284
aI285
aI286
aI287
aI288
aI289
aI290
aI291
aI292
aI292
aI292
aI292
aI292
aI292
aI292
aI292
aI292
aI292
aI292
aI292
aI292
aI292
aI292
aI292
aI292
aI292
aI292
aI292
aI292
aI292
aI292
aI292
aI292
aI292
aI292
aI292
aI292
aI292
aI292
aI292
aI292
aI292
aI292
aI292
aI292
aI292
aI292
aI292
aI292
aI292
aI292
aI292
aI292
aI292
aI292
aI292
aI292
aI292
aI292
aI292
aI292
aI292
aI292
aI292
aI292
aI292
aI292
aI292
aI292
aI292
aI292
aI292
aI292
aI292
aI292
aI292
aI292
aI292
aI292
aI292
aI292
aI292
aI292
aI292
aI292
aI292
aI292
aI292
aI292
aI292
aI292
aI292
aI292
aI292
aI292
aI292
aI292
aI292
aI292
aI292
aI292
aI292
aI292
aI292
aI292
aI292
aI292
aI292
aI292
aI292
aI292
aI292
aI292
aI292
aI292
aI292
aI292
aI292
aI292
aI292
aI292
aI292
aI292
aI292
aI292
aI292
aI292
aI292
aI292
aI292
aI292
aI292
aI292
aI292
aI292
aI292
aI292
aI292
aI292
aI292
aI292
aI292
aI292
aI292
aI292
aI292
aI292
aI292
aI292
aI292
aI292
aI292
aI292
aI292
aI292
aI292
aI292
aI292
aI292
aI292
aI292
aI292
aI292
aI292
aI292
aI292
aI292
aI292
aI292
aI292
aI292
aI292
aI292
aI292
aI292
aI292
aI292
aI292
aI292
aI292
aI292
aI292
aI292
aI292
aI292
aI292
aI292
aI292
aI292
aI292
aI292
aI292
aI292
aI292
aI292
aI292
aI292
aI292
aI292
aI292
aI292
aI292
aI292
aI292
aI292
aI292
aI292
aI292
aI292
aI292
aI292
aI292
aI292
aI292
aI292
aI292
aI292
aI292
aI292
aI292
aI292
aI292
aI292
aI292
aI292
aI292
aI292
aI292
aI292
aI292
aI292
aI292
aI292
aI292
aI292
aI292
aI292
aI292
aI292
aI292
aI292
aI292
aI292
aI292
aI292
aI292
aI292
aI292
aI292
aI292
aI292
aI292
aI292
aI292
aa(lp14
I270
aI270
aI270
aI270
aI270
aI270
aI270
aI270
aI270
aI270
aI270
aI270
aI270
aI270
aI270
aI270
aI270
aI270
aI270
aI270
aI270
aI270
aI270
aI270
aI270
aI270
aI270
aI270
aI270
aI270
aI270
aI270
aI270
aI270
aI270
aI270
aI270
aI270
aI270
aI270
aI270
aI270
aI270
aI271
aI272
aI273
aI274
aI275
aI276
aI277
aI278
aI279
aI280
aI281
aI282
aI283
aI284
aI285
aI286
aI287
aI288
aI289
aI290
aI291
aI292
aI293
aI294
aI295
aI296
aI297
aI298
aI299
aI300
aI301
aI302
aI303
aI304
aI305
aI306
aI307
aI308
aI309
aI309
aI309
aI309
aI309
aI309
aI309
aI309
aI309
aI309
aI309
aI309
aI309
aI309
aI309
aI309
aI309
aI309
aI309
aI309
aI309
aI309
aI309
aI309
aI309
aI309
aI309
aI309
aI309
aI309
aI309
aI309
aI309
aI309
aI309
aI309
aI309
aI309
aI309
aI309
aI309
aI309
aI308
aI307
aI306
aI305
aI304
aI303
aI302
aI302
aI302
aI302
aI302
aI302
aI302
aI301
aI300
aI299
aI298
aI297
aI296
aI295
aI295
aI295
aI295
aI295
aI295
aI295
aI295
aI295
aI295
aI295
aI295
aI295
aI295
aI295
aI295
aI295
aI295
aI295
aI295
aI295
aI295
aI295
aI295
aI295
aI295
aI295
aI295
aI295
aI295
aI295
aI295
aI295
aI295
aI296
aI297
aI298
aI299
aI300
aI301
aI302
aI303
aI303
aI303
aI303
aI303
aI303
aI303
aI303
aI303
aI303
aI303
aI303
aI303
aI303
aI303
aI303
aI303
aI303
aI303
aI303
aI303
aI303
aI303
aI303
aI303
aI303
aI303
aI303
aI303
aI303
aI303
aI303
aI303
aI303
aI303
aI303
aI303
aI303
aI303
aI303
aI303
aI303
aI303
aI303
aI303
aI303
aI303
aI303
aI303
aI303
aI303
aI303
aI303
aI303
aI303
aI303
aI303
aI303
aI303
aI303
aI303
aI303
aI303
aI303
aI303
aI303
aI303
aI303
aI303
aI303
aI303
aI303
aI303
aI303
aI303
aI303
aI303
aI303
aI303
aI303
aI303
aI303
aI303
aI303
aI303
aI303
aI303
aI303
aI303
aI303
aI303
aI303
aI303
aI303
aI303
aI303
aI303
aI303
aI303
aI303
aI303
aI303
aI303
aI303
aI303
aI303
aI303
aI303
aI303
aI303
aI303
aI303
aI303
aI303
aI303
aI303
aI303
aI303
aI303
aI303
aa(lp15
I270
aI270
aI270
aI270
aI270
aI270
aI270
aI270
aI270
aI270
aI270
aI270
aI270
aI270
aI270
aI270
aI270
aI270
aI270
aI270
aI270
aI270
aI270
aI270
aI270
aI270
aI270
aI270
aI270
aI270
aI270
aI270
aI270
aI270
aI270
aI270
aI270
aI270
aI270
aI270
aI270
aI270
aI270
aI270
aI270
aI270
aI270
aI270
aI270
aI270
aI270
aI270
aI270
aI271
aI272
aI273
aI274
aI275
aI276
aI277
aI278
aI279
aI280
aI281
aI282
aI283
aI284
aI285
aI286
aI286
aI286
aI286
aI286
aI286
aI286
aI286
aI286
aI286
aI286
aI286
aI286
aI286
aI286
aI286
aI287
aI288
aI289
aI290
aI291
aI292
aI293
aI294
aI295
aI296
aI297
aI298
aI299
aI300
aI301
aI302
aI303
aI304
aI305
aI306
aI307
aI308
aI309
aI310
aI311
aI312
aI313
aI314
aI314
aI314
aI314
aI314
aI314
aI314
aI314
aI314
aI314
aI314
aI314
aI314
aI314
aI314
aI314
aI314
aI314
aI314
aI314
aI314
aI314
aI314
aI314
aI314
aI314
aI314
aI314
aI314
aI314
aI314
aI314
aI314
aI314
aI314
aI314
aI314
aI314
aI315
aI316
aI317
aI318
aI319
aI320
aI321
aI322
aI323
aI324
aI324
aI324
aI324
aI324
aI324
aI324
aI324
aI324
aI324
aI324
aI324
aI324
aI324
aI324
aI324
aI324
aI324
aI324
aI324
aI324
aI324
aI324
aI324
aI325
aI326
aI327
aI328
aI329
aI330
aI331
aI332
aI332
aI332
aI332
aI332
aI332
aI332
aI332
aI332
aI332
aI332
aI332
aI332
aI332
aI332
aI332
aI332
aI332
aI332
aI332
aI332
aI332
aI332
aI332
aI332
aI332
aI332
aI331
aI330
aI329
aI328
aI327
aI326
aI325
aI325
aI325
aI325
aI325
aI325
aI325
aI325
aI325
aI325
aI325
aI324
aI323
aI322
aI321
aI320
aI320
aI320
aI320
aI320
aI320
aI320
aI320
aI320
aI320
aI320
aI320
aI320
aI320
aI320
aI320
aI320
aI320
aI320
aI320
aI320
aI320
aI320
aI320
aI320
aI320
aI320
aI320
aI320
aI320
aI320
aI320
aI320
aI320
aI320
aI320
aI320
aI320
aI320
aI320
aI320
aI320
aI320
aI320
aI320
aI320
aI320
aI320
aI320
aI320
aI320
aI320
aI320
aI320
aI320
aI320
aI320
aI320
aI320
aI320
aI320
aI320
aI320
aI320
aI320
aI320
aa(lp16
I90
aI90
aI90
aI90
aI90
aI90
aI90
aI90
aI90
aI90
aI90
aI90
aI90
aI90
aI90
aI90
aI90
aI90
aI90
aI90
aI90
aI90
aI90
aI90
aI90
aI90
aI90
aI90
aI90
aI90
aI90
aI90
aI90
aI90
aI90
aI90
aI90
aI90
aI90
aI90
aI90
aI90
aI90
aI90
aI90
aI90
aI90
aI89
aI88
aI87
aI86
aI85
aI84
aI83
aI82
aI81
aI80
aI79
aI78
aI77
aI76
aI75
aI74
aI73
aI72
aI71
aI70
aI69
aI68
aI67
aI68
aI69
aI70
aI71
aI72
aI73
aI74
aI75
aI76
aI77
aI78
aI79
aI80
aI81
aI82
aI83
aI84
aI85
aI86
aI87
aI88
aI89
aI90
aI91
aI92
aI93
aI94
aI95
aI96
aI97
aI98
aI99
aI100
aI101
aI102
aI103
aI104
aI105
aI106
aI107
aI108
aI109
aI110
aI111
aI112
aI113
aI114
aI115
aI116
aI117
aI118
aI119
aI120
aI121
aI122
aI123
aI124
aI125
aI126
aI127
aI127
aI127
aI127
aI127
aI127
aI127
aI127
aI127
aI127
aI127
aI127
aI127
aI127
aI127
aI127
aI127
aI127
aI127
aI127
aI127
aI127
aI127
aI127
aI127
aI127
aI127
aI127
aI127
aI127
aI127
aI127
aI127
aI127
aI127
aI127
aI127
aI127
aI127
aI127
aI127
aI127
aI127
aI127
aI127
aI127
aI127
aI127
aI127
aI127
aI127
aI127
aI127
aI127
aI127
aI127
aI127
aI127
aI127
aI127
aI127
aI127
aI127
aI127
aI127
aI127
aI127
aI127
aI127
aI127
aI127
aI127
aI127
aI127
aI127
aI127
aI127
aI127
aI127
aI127
aI127
aI127
aI127
aI127
aI127
aI127
aI127
aI127
aI127
aI127
aI127
aI127
aI127
aI126
aI125
aI124
aI123
aI122
aI122
aI122
aI122
aI122
aI122
aI122
aI122
aI122
aI122
aI122
aI122
aI122
aI122
aI122
aI122
aI122
aI122
aI122
aI122
aI122
aI122
aI122
aI122
aI122
aI122
aI122
aI122
aI122
aI122
aI122
aI122
aI122
aI122
aI122
aI122
aI122
aI122
aI122
aI122
aI122
aI122
aI122
aI122
aI122
aI122
aI122
aI122
aI122
aI122
aI122
aI122
aI122
aI122
aI122
aI122
aI122
aI122
aI122
aI122
aI122
aI122
aI122
aI122
aI122
aI122
aI122
aI122
aI122
aI122
aI122
aI122
aI123
aI124
aI125
aI126
aI127
aa(lp17
I180
aI180
aI180
aI180
aI180
aI180
aI180
aI180
aI180
aI180
aI180
aI180
aI180
aI180
aI180
aI180
aI180
aI180
aI180
aI180
aI180
aI180
aI180
aI180
aI180
aI180
aI180
aI180
aI180
aI180
aI180
aI180
aI180
aI180
aI180
aI180
aI180
aI180
aI180
aI180
aI180
aI180
aI180
aI180
aI180
aI180
aI180
aI180
aI180
aI180
aI181
aI182
aI183
aI184
aI185
aI186
aI187
aI188
aI189
aI190
aI191
aI192
aI193
aI194
aI194
aI194
aI194
aI194
aI194
aI194
aI194
aI194
aI194
aI194
aI194
aI194
aI194
aI194
aI194
aI194
aI195
aI196
aI197
aI198
aI199
aI200
aI201
aI202
aI203
aI203
aI203
aI203
aI203
aI203
aI203
aI203
aI203
aI203
aI203
aI203
aI203
aI203
aI203
aI203
aI203
aI203
aI203
aI203
aI203
aI203
aI203
aI203
aI203
aI203
aI203
aI203
aI203
aI203
aI203
aI203
aI203
aI203
aI203
aI203
aI203
aI203
aI203
aI203
aI203
aI203
aI203
aI203
aI203
aI203
aI203
aI203
aI203
aI203
aI203
aI202
aI201
aI200
aI199
aI198
aI197
aI196
aI195
aI195
aI195
aI195
aI195
aI195
aI195
aI195
aI195
aI195
aI195
aI195
aI195
aI195
aI195
aI195
aI195
aI195
aI195
aI195
aI195
aI195
aI195
aI195
aI195
aI195
aI195
aI195
aI195
aI195
aI195
aI195
aI195
aI195
aI195
aI195
aI195
aI195
aI195
aI195
aI195
aI195
aI195
aI195
aI195
aI195
aI195
aI195
aI195
aI195
aI195
aI195
aI195
aI195
aI195
aI195
aI195
aI195
aI195
aI195
aI195
aI195
aI195
aI195
aI195
aI195
aI195
aI195
aI195
aI195
aI195
aI195
aI195
aI195
aI195
aI195
aI195
aI195
aI195
aI195
aI195
aI195
aI195
aI195
aI195
aI195
aI195
aI195
aI195
aI195
aI195
aI195
aI195
aI195
aI195
aI195
aI195
aI195
aI195
aI195
aI195
aI195
aI195
aI195
aI195
aI195
aI195
aI195
aI195
aI195
aI195
aI195
aI195
aI195
aI195
aI195
aI195
aI195
aI195
aI195
aI195
aI195
aI195
aI195
aI195
aI195
aI195
aI195
aI195
aI195
aI195
aI195
aI195
aI195
aI195
aI195
aI195
aI195
aI195
aI195
aI195
aI195
aI195
aI195
aI195
aI195
aI195
aI195
aI195
aI195
aI195
aI196
aI197
aI198
aI199
aI200
aI201
aa(lp18
I90
aI90
aI90
aI90
aI90
aI90
aI90
aI90
aI90
aI90
aI90
aI90
aI90
aI90
aI90
aI90
aI90
aI90
aI90
aI90
aI90
aI90
aI90
aI90
aI90
aI90
aI90
aI90
aI90
aI90
aI90
aI90
aI90
aI90
aI90
aI90
aI90
aI90
aI90
aI90
aI90
aI90
aI90
aI90
aI90
aI90
aI90
aI90
aI90
aI90
aI90
aI90
aI89
aI88
aI87
aI86
aI85
aI84
aI83
aI82
aI81
aI80
aI79
aI78
aI77
aI76
aI75
aI75
aI75
aI75
aI75
aI75
aI75
aI75
aI75
aI75
aI75
aI75
aI75
aI74
aI73
aI72
aI71
aI70
aI69
aI68
aI67
aI67
aI67
aI67
aI67
aI67
aI67
aI67
aI67
aI67
aI67
aI67
aI67
aI67
aI67
aI67
aI67
aI67
aI67
aI67
aI67
aI67
aI68
aI69
aI70
aI71
aI72
aI73
aI74
aI75
aI76
aI77
aI78
aI79
aI80
aI81
aI81
aI81
aI81
aI81
aI81
aI81
aI81
aI81
aI81
aI81
aI81
aI81
aI81
aI81
aI81
aI81
aI81
aI81
aI81
aI81
aI81
aI81
aI81
aI81
aI81
aI81
aI81
aI81
aI81
aI81
aI81
aI81
aI81
aI81
aI81
aI81
aI81
aI81
aI81
aI81
aI81
aI81
aI81
aI81
aI81
aI81
aI81
aI81
aI81
aI81
aI81
aI81
aI81
aI81
aI80
aI79
aI78
aI77
aI76
aI75
aI74
aI73
aI73
aI73
aI73
aI73
aI73
aI73
aI73
aI73
aI73
aI73
aI73
aI73
aI73
aI73
aI73
aI73
aI73
aI73
aI73
aI73
aI73
aI73
aI73
aI73
aI73
aI73
aI73
aI73
aI73
aI73
aI73
aI73
aI73
aI73
aI73
aI73
aI73
aI73
aI73
aI73
aI73
aI73
aI73
aI73
aI73
aI73
aI73
aI73
aI73
aI73
aI73
aI73
aI73
aI73
aI73
aI73
aI73
aI73
aI73
aI73
aI73
aI73
aI73
aI73
aI73
aI73
aI73
aI73
aI73
aI73
aI73
aI73
aI73
aI73
aI73
aI73
aI73
aI73
aI73
aI73
aI73
aI73
aI73
aI73
aI73
aI73
aI73
aI73
aI73
aI73
aI73
aI73
aI73
aI73
aI73
aI73
aI73
aI73
aI73
aI73
aI73
aI73
aI73
aI73
aI73
aI73
aI73
aI73
aI73
aI73
aI73
aI73
aI73
aI73
aI73
aI73
aI73
aI73
aI73
aa(lp19
I270
aI270
aI270
aI270
aI270
aI270
aI270
aI270
aI270
aI270
aI270
aI270
aI270
aI270
aI270
aI270
aI270
aI270
aI270
aI270
aI270
aI270
aI270
aI270
aI270
aI270
aI270
aI270
aI270
aI270
aI270
aI270
aI270
aI270
aI270
aI270
aI270
aI270
aI270
aI270
aI270
aI270
aI270
aI270
aI270
aI270
aI270
aI270
aI270
aI270
aI270
aI270
aI270
aI270
aI270
aI270
aI270
aI270
aI270
aI270
aI270
aI270
aI270
aI270
aI270
aI270
aI270
aI270
aI270
aI270
aI270
aI270
aI270
aI270
aI270
aI270
aI270
aI270
aI270
aI270
aI270
aI270
aI270
aI270
aI270
aI270
aI270
aI270
aI270
aI270
aI270
aI270
aI270
aI270
aI270
aI270
aI270
aI270
aI270
aI271
aI272
aI273
aI274
aI275
aI276
aI277
aI278
aI279
aI280
aI281
aI282
aI283
aI284
aI285
aI285
aI285
aI285
aI285
aI285
aI285
aI285
aI285
aI285
aI285
aI284
aI283
aI282
aI281
aI280
aI279
aI278
aI278
aI278
aI278
aI278
aI278
aI278
aI277
aI276
aI275
aI274
aI273
aI272
aI271
aI271
aI271
aI271
aI270
aI269
aI268
aI267
aI266
aI265
aI264
aI263
aI263
aI263
aI263
aI262
aI261
aI260
aI259
aI258
aI257
aI256
aI256
aI256
aI256
aI255
aI254
aI253
aI252
aI251
aI250
aI249
aI249
aI249
aI249
aI249
aI249
aI249
aI249
aI249
aI249
aI249
aI249
aI249
aI249
aI249
aI249
aI249
aI249
aI249
aI249
aI249
aI249
aI249
aI249
aI249
aI250
aI251
aI252
aI253
aI254
aI255
aI256
aI257
aI257
aI257
aI257
aI257
aI257
aI257
aI257
aI257
aI257
aI257
aI257
aI257
aI257
aI257
aI257
aI257
aI257
aI257
aI257
aI257
aI257
aI257
aI257
aI257
aI257
aI257
aI257
aI257
aI257
aI257
aI257
aI257
aI257
aI257
aI257
aI257
aI257
aI257
aI257
aI257
aI257
aI257
aI257
aI257
aI257
aI257
aI257
aI257
aI257
aI257
aI257
aI257
aI257
aI257
aI257
aI257
aI257
aI257
aI257
aI257
aI257
aI257
aI257
aI257
aI257
aI257
aI257
aI257
aI257
aI257
aI257
aI257
aI257
aI257
aI257
aI257
aI257
aI257
aI257
aI257
aI258
aI259
aI260
aI261
aI262
aI262
aI262
aI262
aI262
aI262
aI262
aI262
aI262
aI262
aI262
aI262
aa(lp20
I0
aI0
aI0
aI0
aI0
aI0
aI0
aI0
aI0
aI0
aI0
aI0
aI0
aI0
aI0
aI0
aI0
aI0
aI0
aI0
aI0
aI0
aI0
aI0
aI0
aI0
aI0
aI0
aI0
aI0
aI0
aI0
aI0
aI0
aI0
aI0
aI0
aI0
aI0
aI0
aI0
aI0
aI0
aI0
aI0
aI0
aI0
aI0
aI0
aI0
aI0
aI0
aI0
aI0
aI0
aI0
aI0
aI0
aI0
aI0
aI0
aI0
aI0
aI0
aI0
aI0
aI0
aI0
aI0
aI0
aI0
aI0
aI0
aI0
aI0
aI0
aI0
aI0
aI0
aI0
aI0
aI0
aI0
aI0
aI0
aI0
aI0
aI0
aI0
aI0
aI0
aI0
aI0
aI0
aI0
aI0
aI0
aI0
aI0
aI0
aI0
aI0
aI0
aI0
aI0
aI0
aI0
aI0
aI0
aI0
aI0
aI0
aI0
aI0
aI0
aI0
aI0
aI1
aI2
aI3
aI4
aI5
aI6
aI6
aI6
aI6
aI6
aI6
aI6
aI6
aI6
aI6
aI6
aI6
aI6
aI6
aI6
aI6
aI6
aI6
aI6
aI6
aI6
aI6
aI7
aI8
aI9
aI10
aI11
aI12
aI13
aI14
aI15
aI16
aI17
aI18
aI19
aI20
aI21
aI22
aI23
aI24
aI25
aI26
aI27
aI28
aI29
aI30
aI31
aI32
aI33
aI34
aI35
aI36
aI37
aI38
aI39
aI40
aI41
aI42
aI43
aI44
aI45
aI46
aI47
aI48
aI49
aI50
aI51
aI52
aI53
aI54
aI55
aI56
aI57
aI58
aI58
aI58
aI58
aI58
aI58
aI58
aI58
aI58
aI58
aI58
aI58
aI58
aI58
aI58
aI58
aI58
aI58
aI58
aI58
aI58
aI59
aI60
aI61
aI62
aI63
aI64
aI64
aI64
aI64
aI64
aI64
aI64
aI64
aI64
aI64
aI64
aI64
aI64
aI64
aI64
aI64
aI64
aI64
aI64
aI64
aI64
aI64
aI64
aI64
aI64
aI64
aI64
aI64
aI64
aI64
aI64
aI64
aI64
aI64
aI64
aI64
aI64
aI64
aI64
aI64
aI64
aI64
aI64
aI64
aI64
aI64
aI64
aI64
aI64
aI64
aI64
aI64
aI64
aI63
aI62
aI61
aI60
aI59
aI58
aI57
aI56
aI56
aI56
aI56
aI56
aI56
aI56
aI56
aI56
aI56
aI56
aI56
aI56
aI56
aI56
aI56
aI56
aI56
aI56
aI56
aI56
aI56
aa(lp21
I270
aI270
aI270
aI270
aI270
aI270
aI270
aI270
aI270
aI270
aI270
aI270
aI270
aI270
aI270
aI270
aI270
aI270
aI270
aI270
aI270
aI270
aI270
aI270
aI270
aI270
aI270
aI270
aI270
aI270
aI270
aI270
aI270
aI270
aI270
aI270
aI270
aI270
aI270
aI270
aI270
aI270
aI270
aI270
aI270
aI270
aI270
aI270
aI270
aI270
aI270
aI270
aI270
aI270
aI270
aI270
aI271
aI272
aI273
aI274
aI275
aI276
aI277
aI278
aI279
aI280
aI281
aI282
aI283
aI284
aI285
aI286
aI287
aI288
aI289
aI290
aI291
aI292
aI293
aI294
aI295
aI296
aI297
aI298
aI299
aI300
aI301
aI302
aI303
aI304
aI305
aI306
aI307
aI308
aI309
aI310
aI311
aI312
aI313
aI314
aI315
aI316
aI317
aI318
aI319
aI320
aI321
aI322
aI322
aI322
aI322
aI322
aI322
aI322
aI322
aI322
aI322
aI322
aI322
aI322
aI322
aI322
aI322
aI322
aI322
aI322
aI322
aI322
aI322
aI322
aI322
aI322
aI322
aI323
aI324
aI325
aI326
aI327
aI328
aI328
aI328
aI328
aI328
aI328
aI328
aI328
aI328
aI328
aI328
aI328
aI328
aI328
aI328
aI328
aI328
aI328
aI328
aI328
aI328
aI328
aI328
aI328
aI328
aI328
aI328
aI328
aI328
aI328
aI328
aI328
aI328
aI328
aI328
aI328
aI328
aI328
aI328
aI328
aI328
aI328
aI328
aI328
aI328
aI328
aI328
aI328
aI328
aI328
aI328
aI328
aI328
aI328
aI328
aI328
aI328
aI328
aI328
aI328
aI328
aI328
aI328
aI328
aI328
aI328
aI328
aI328
aI328
aI328
aI328
aI328
aI328
aI328
aI328
aI328
aI328
aI328
aI328
aI328
aI328
aI328
aI328
aI328
aI328
aI328
aI328
aI328
aI328
aI328
aI328
aI328
aI328
aI328
aI328
aI328
aI328
aI328
aI328
aI328
aI328
aI328
aI328
aI328
aI328
aI328
aI328
aI328
aI328
aI328
aI328
aI328
aI328
aI328
aI328
aI328
aI328
aI328
aI328
aI328
aI328
aI328
aI328
aI328
aI328
aI328
aI328
aI328
aI328
aI328
aI328
aI328
aI328
aI328
aI328
aI328
aI328
aI328
aI328
aI328
aI328
aI328
aI328
aI328
aI328
aI328
aI328
aI328
aI328
aI328
aI328
aI328
aI328
aI328
aI328
aI328
aI328
aI328
aI328
aI328
aI328
aI328
aI328
aI328
aI328
aa(lp22
I180
aI180
aI180
aI180
aI180
aI180
aI180
aI180
aI180
aI180
aI180
aI180
aI180
aI180
aI180
aI180
aI180
aI180
aI180
aI180
aI180
aI180
aI180
aI180
aI180
aI180
aI180
aI180
aI180
aI180
aI180
aI180
aI180
aI180
aI180
aI180
aI180
aI180
aI180
aI180
aI180
aI180
aI180
aI180
aI180
aI180
aI180
aI180
aI180
aI180
aI180
aI180
aI180
aI180
aI181
aI182
aI183
aI184
aI185
aI186
aI187
aI188
aI189
aI190
aI191
aI192
aI193
aI194
aI195
aI196
aI197
aI198
aI199
aI200
aI201
aI202
aI203
aI204
aI205
aI206
aI207
aI208
aI209
aI210
aI211
aI212
aI213
aI214
aI215
aI216
aI217
aI218
aI219
aI220
aI221
aI222
aI223
aI224
aI225
aI226
aI226
aI226
aI226
aI226
aI226
aI226
aI226
aI226
aI226
aI226
aI226
aI226
aI226
aI226
aI226
aI226
aI226
aI226
aI226
aI226
aI226
aI226
aI226
aI226
aI226
aI226
aI226
aI226
aI226
aI226
aI226
aI226
aI226
aI226
aI226
aI226
aI226
aI226
aI226
aI226
aI226
aI226
aI226
aI226
aI226
aI226
aI226
aI226
aI226
aI226
aI226
aI227
aI228
aI229
aI230
aI231
aI232
aI233
aI234
aI235
aI236
aI237
aI238
aI239
aI239
aI239
aI239
aI239
aI239
aI239
aI239
aI239
aI239
aI239
aI239
aI239
aI239
aI239
aI239
aI239
aI239
aI239
aI239
aI239
aI239
aI239
aI239
aI239
aI239
aI239
aI239
aI239
aI239
aI239
aI239
aI239
aI239
aI239
aI239
aI239
aI239
aI239
aI239
aI239
aI239
aI239
aI239
aI239
aI239
aI239
aI239
aI239
aI239
aI239
aI239
aI239
aI239
aI240
aI241
aI242
aI243
aI244
aI245
aI246
aI246
aI246
aI246
aI246
aI246
aI246
aI246
aI246
aI246
aI246
aI246
aI246
aI246
aI246
aI246
aI246
aI246
aI246
aI246
aI246
aI246
aI246
aI245
aI244
aI243
aI242
aI241
aI240
aI240
aI240
aI239
aI238
aI237
aI236
aI235
aI234
aI233
aI232
aI231
aI230
aI230
aI230
aI230
aI230
aI230
aI230
aI230
aI230
aI230
aI230
aI230
aI230
aI230
aI230
aI230
aI230
aI230
aI230
aI230
aI230
aI230
aI230
aI230
aI230
aI230
aI230
aI230
aI230
aI230
aI230
aI230
aI230
aI230
aI230
aI230
aI231
aI232
aI233
aa(lp23
I90
aI90
aI90
aI90
aI90
aI90
aI90
aI90
aI90
aI90
aI90
aI90
aI90
aI90
aI90
aI90
aI90
aI90
aI90
aI90
aI90
aI90
aI90
aI90
aI90
aI90
aI90
aI90
aI90
aI90
aI90
aI90
aI90
aI90
aI90
aI90
aI90
aI90
aI90
aI90
aI90
aI90
aI90
aI90
aI90
aI90
aI90
aI90
aI90
aI90
aI90
aI90
aI90
aI90
aI90
aI90
aI90
aI90
aI90
aI90
aI90
aI90
aI90
aI90
aI90
aI90
aI90
aI90
aI90
aI90
aI90
aI90
aI90
aI90
aI90
aI90
aI90
aI90
aI90
aI90
aI90
aI90
aI90
aI90
aI90
aI90
aI90
aI90
aI90
aI90
aI90
aI90
aI90
aI90
aI90
aI90
aI90
aI90
aI90
aI90
aI90
aI90
aI90
aI90
aI90
aI90
aI90
aI90
aI90
aI90
aI90
aI90
aI90
aI90
aI90
aI90
aI90
aI90
aI90
aI90
aI90
aI90
aI90
aI90
aI90
aI90
aI90
aI90
aI90
aI90
aI90
aI90
aI90
aI90
aI90
aI90
aI90
aI90
aI90
aI90
aI90
aI90
aI90
aI90
aI90
aI90
aI90
aI90
aI90
aI90
aI90
aI90
aI90
aI90
aI90
aI90
aI90
aI90
aI90
aI90
aI90
aI90
aI90
aI90
aI90
aI90
aI90
aI90
aI90
aI90
aI90
aI90
aI90
aI90
aI90
aI90
aI90
aI90
aI90
aI90
aI90
aI90
aI90
aI90
aI90
aI90
aI90
aI90
aI90
aI90
aI90
aI90
aI90
aI90
aI90
aI90
aI90
aI90
aI90
aI90
aI90
aI90
aI90
aI90
aI90
aI90
aI90
aI90
aI90
aI90
aI90
aI90
aI90
aI90
aI90
aI90
aI90
aI90
aI90
aI90
aI90
aI90
aI90
aI90
aI90
aI90
aI90
aI90
aI90
aI90
aI90
aI90
aI90
aI90
aI90
aI90
aI90
aI90
aI90
aI90
aI90
aI90
aI90
aI90
aI90
aI90
aI90
aI90
aI90
aI90
aI90
aI90
aI90
aI90
aI90
aI90
aI90
aI90
aI90
aI90
aI90
aI90
aI90
aI90
aI90
aI90
aI90
aI90
aI90
aI90
aI90
aI90
aI90
aI90
aI90
aI90
aI90
aI90
aI90
aI90
aI90
aI90
aI90
aI90
aI90
aI90
aI90
aI90
aI90
aI90
aI90
aI90
aI90
aI90
aI90
aI90
aI90
aI90
aI90
aI90
aI90
aI90
aI90
aa(lp24
I90
aI90
aI90
aI90
aI90
aI90
aI90
aI90
aI90
aI90
aI90
aI90
aI90
aI90
aI90
aI90
aI90
aI90
aI90
aI90
aI90
aI90
aI90
aI90
aI90
aI90
aI90
aI90
aI90
aI90
aI90
aI90
aI90
aI90
aI90
aI90
aI90
aI90
aI90
aI90
aI90
aI90
aI90
aI90
aI90
aI90
aI90
aI90
aI90
aI90
aI90
aI90
aI90
aI90
aI90
aI90
aI90
aI90
aI90
aI90
aI90
aI90
aI90
aI90
aI90
aI90
aI90
aI90
aI90
aI90
aI90
aI90
aI90
aI90
aI90
aI90
aI90
aI90
aI90
aI90
aI90
aI90
aI90
aI90
aI90
aI90
aI90
aI90
aI90
aI90
aI90
aI90
aI90
aI90
aI90
aI90
aI90
aI90
aI90
aI90
aI90
aI90
aI90
aI90
aI90
aI90
aI90
aI90
aI90
aI90
aI90
aI90
aI90
aI90
aI90
aI90
aI90
aI90
aI90
aI91
aI92
aI93
aI94
aI95
aI96
aI97
aI98
aI99
aI100
aI101
aI102
aI103
aI104
aI105
aI106
aI107
aI107
aI107
aI107
aI107
aI107
aI107
aI107
aI107
aI107
aI107
aI107
aI107
aI107
aI107
aI107
aI107
aI107
aI107
aI108
aI109
aI110
aI111
aI112
aI113
aI114
aI115
aI115
aI115
aI115
aI115
aI115
aI115
aI115
aI115
aI115
aI115
aI115
aI115
aI115
aI115
aI115
aI115
aI115
aI115
aI115
aI115
aI115
aI115
aI115
aI115
aI115
aI115
aI115
aI115
aI115
aI115
aI115
aI115
aI115
aI115
aI115
aI115
aI115
aI115
aI115
aI115
aI115
aI115
aI115
aI115
aI115
aI115
aI115
aI115
aI115
aI115
aI115
aI115
aI115
aI115
aI115
aI115
aI115
aI115
aI115
aI115
aI115
aI115
aI115
aI115
aI115
aI115
aI115
aI115
aI115
aI115
aI115
aI115
aI115
aI115
aI115
aI115
aI115
aI115
aI115
aI115
aI115
aI115
aI115
aI115
aI115
aI115
aI115
aI115
aI115
aI115
aI115
aI115
aI115
aI115
aI115
aI115
aI115
aI115
aI115
aI115
aI115
aI115
aI115
aI115
aI115
aI115
aI115
aI115
aI115
aI115
aI115
aI115
aI115
aI115
aI115
aI115
aI115
aI115
aI115
aI115
aI115
aI115
aI115
aI115
aI115
aI115
aI115
aI115
aI115
aI115
aI115
aI115
aI115
aI115
aI115
aI115
aI115
aI115
aI115
aI115
aa(lp25
I90
aI90
aI90
aI90
aI90
aI90
aI90
aI90
aI90
aI90
aI90
aI90
aI90
aI90
aI90
aI90
aI90
aI90
aI90
aI90
aI90
aI90
aI90
aI90
aI90
aI90
aI90
aI90
aI90
aI90
aI90
aI90
aI90
aI90
aI90
aI90
aI90
aI90
aI90
aI90
aI90
aI90
aI90
aI90
aI90
aI90
aI90
aI90
aI90
aI90
aI90
aI90
aI90
aI90
aI90
aI90
aI90
aI90
aI90
aI90
aI90
aI90
aI90
aI89
aI88
aI87
aI86
aI85
aI84
aI83
aI82
aI81
aI81
aI81
aI81
aI81
aI81
aI81
aI81
aI81
aI81
aI80
aI79
aI78
aI77
aI76
aI76
aI76
aI76
aI76
aI76
aI76
aI76
aI76
aI76
aI76
aI76
aI76
aI76
aI76
aI76
aI76
aI76
aI76
aI76
aI76
aI76
aI76
aI76
aI76
aI76
aI76
aI76
aI76
aI76
aI76
aI76
aI76
aI76
aI76
aI76
aI76
aI76
aI76
aI76
aI76
aI76
aI76
aI76
aI76
aI76
aI76
aI76
aI76
aI76
aI76
aI76
aI76
aI76
aI76
aI76
aI76
aI76
aI76
aI76
aI76
aI76
aI76
aI76
aI76
aI76
aI76
aI76
aI76
aI76
aI76
aI76
aI76
aI76
aI76
aI75
aI74
aI73
aI72
aI71
aI70
aI69
aI68
aI67
aI67
aI67
aI67
aI67
aI67
aI67
aI67
aI67
aI67
aI67
aI67
aI67
aI67
aI67
aI67
aI67
aI67
aI67
aI67
aI67
aI67
aI67
aI67
aI67
aI67
aI67
aI67
aI67
aI67
aI67
aI67
aI67
aI67
aI67
aI67
aI67
aI67
aI67
aI67
aI67
aI67
aI67
aI67
aI67
aI67
aI67
aI67
aI67
aI67
aI67
aI67
aI67
aI67
aI67
aI67
aI67
aI67
aI67
aI67
aI67
aI67
aI67
aI67
aI67
aI67
aI67
aI67
aI67
aI67
aI67
aI67
aI67
aI67
aI67
aI67
aI67
aI67
aI67
aI67
aI67
aI67
aI67
aI67
aI67
aI67
aI67
aI67
aI67
aI67
aI67
aI67
aI67
aI67
aI67
aI67
aI67
aI67
aI67
aI67
aI67
aI67
aI67
aI67
aI67
aI67
aI67
aI67
aI67
aI67
aI67
aI67
aI67
aI67
aI67
aI67
aI67
aI67
aI67
aI67
aI67
aI67
aI67
aI67
aI67
aI67
aI67
aI67
aI67
aI67
aI67
aI67
aI67
aI67
aI67
aa(lp26
I180
aI180
aI180
aI180
aI180
aI180
aI180
aI180
aI180
aI180
aI180
aI180
aI180
aI180
aI180
aI180
aI180
aI180
aI180
aI180
aI180
aI180
aI180
aI180
aI180
aI180
aI180
aI180
aI180
aI180
aI180
aI180
aI180
aI180
aI180
aI180
aI180
aI180
aI180
aI180
aI180
aI180
aI180
aI180
aI180
aI180
aI180
aI180
aI180
aI180
aI180
aI180
aI180
aI180
aI180
aI180
aI180
aI180
aI180
aI180
aI180
aI180
aI180
aI180
aI180
aI180
aI180
aI180
aI180
aI180
aI180
aI180
aI180
aI180
aI180
aI180
aI180
aI180
aI180
aI180
aI180
aI180
aI180
aI180
aI180
aI180
aI180
aI180
aI180
aI180
aI180
aI180
aI180
aI180
aI180
aI180
aI180
aI180
aI180
aI180
aI180
aI180
aI180
aI180
aI180
aI180
aI180
aI180
aI180
aI180
aI180
aI180
aI180
aI180
aI180
aI180
aI180
aI180
aI180
aI180
aI180
aI180
aI180
aI180
aI180
aI180
aI180
aI180
aI180
aI180
aI180
aI180
aI180
aI180
aI180
aI180
aI180
aI180
aI180
aI180
aI180
aI180
aI180
aI180
aI180
aI180
aI180
aI180
aI180
aI180
aI180
aI180
aI180
aI180
aI180
aI180
aI180
aI180
aI180
aI180
aI180
aI180
aI180
aI180
aI180
aI180
aI180
aI180
aI180
aI180
aI180
aI180
aI180
aI180
aI180
aI180
aI180
aI180
aI180
aI180
aI180
aI180
aI180
aI180
aI180
aI180
aI180
aI180
aI180
aI180
aI180
aI180
aI180
aI180
aI180
aI180
aI180
aI180
aI180
aI180
aI180
aI180
aI180
aI180
aI180
aI180
aI180
aI180
aI180
aI180
aI180
aI180
aI180
aI180
aI180
aI180
aI180
aI180
aI180
aI180
aI180
aI180
aI180
aI180
aI180
aI180
aI180
aI180
aI180
aI180
aI180
aI180
aI180
aI180
aI180
aI180
aI180
aI180
aI180
aI180
aI180
aI180
aI180
aI180
aI180
aI180
aI180
aI180
aI180
aI180
aI180
aI180
aI180
aI180
aI180
aI180
aI180
aI180
aI180
aI180
aI180
aI180
aI180
aI180
aI180
aI180
aI180
aI180
aI180
aI180
aI180
aI180
aI180
aI180
aI180
aI180
aI180
aI180
aI180
aI180
aI180
aI180
aI180
aI180
aI180
aI180
aI180
aI180
aI180
aI180
aI180
aI180
aI180
aI180
aI180
aI180
aI180
aI180
aI180
aI180
aI180
aI180
aI180
aa(lp27
I90
aI90
aI90
aI90
aI90
aI90
aI90
aI90
aI90
aI90
aI90
aI90
aI90
aI90
aI90
aI90
aI90
aI90
aI90
aI90
aI90
aI90
aI90
aI90
aI90
aI90
aI90
aI90
aI90
aI90
aI90
aI90
aI90
aI90
aI90
aI90
aI90
aI90
aI90
aI89
aI88
aI87
aI86
aI85
aI84
aI83
aI82
aI81
aI80
aI79
aI78
aI77
aI76
aI75
aI74
aI73
aI72
aI71
aI70
aI69
aI68
aI67
aI66
aI65
aI64
aI63
aI62
aI61
aI60
aI59
aI58
aI57
aI56
aI56
aI56
aI56
aI56
aI56
aI56
aI56
aI56
aI56
aI56
aI56
aI56
aI56
aI56
aI56
aI56
aI56
aI55
aI54
aI53
aI52
aI51
aI50
aI49
aI48
aI47
aI46
aI46
aI46
aI46
aI46
aI46
aI46
aI46
aI46
aI46
aI46
aI46
aI46
aI46
aI46
aI46
aI46
aI46
aI46
aI46
aI46
aI46
aI46
aI46
aI46
aI46
aI46
aI46
aI46
aI46
aI46
aI46
aI46
aI46
aI46
aI46
aI46
aI46
aI46
aI46
aI46
aI46
aI46
aI46
aI46
aI46
aI46
aI46
aI46
aI46
aI46
aI46
aI46
aI46
aI46
aI46
aI46
aI46
aI47
aI48
aI49
aI50
aI51
aI52
aI53
aI54
aI55
aI56
aI57
aI58
aI58
aI58
aI58
aI58
aI58
aI58
aI58
aI58
aI58
aI58
aI58
aI58
aI58
aI58
aI58
aI58
aI58
aI58
aI58
aI58
aI58
aI58
aI58
aI58
aI58
aI58
aI58
aI58
aI58
aI58
aI58
aI58
aI58
aI58
aI57
aI56
aI55
aI54
aI53
aI52
aI51
aI50
aI50
aI50
aI50
aI50
aI50
aI50
aI50
aI50
aI50
aI50
aI50
aI50
aI50
aI50
aI50
aI50
aI50
aI50
aI50
aI50
aI50
aI50
aI50
aI50
aI50
aI50
aI50
aI50
aI50
aI50
aI50
aI50
aI50
aI50
aI50
aI50
aI50
aI50
aI50
aI50
aI50
aI50
aI50
aI50
aI50
aI50
aI50
aI50
aI50
aI50
aI50
aI50
aI50
aI50
aI50
aI50
aI50
aI50
aI50
aI50
aI50
aI50
aI50
aI50
aI50
aI50
aI50
aI50
aI50
aI50
aI50
aI50
aI50
aI50
aI50
aI50
aI50
aI50
aI50
aI50
aI50
aI50
aI50
aI50
aI50
aI50
aI50
aI50
aI50
aI50
aI50
aI50
aa.